ARM GAS  /tmp/cc1ehK8Z.s 			page 1


   1              		.cpu cortex-m4
   2              		.eabi_attribute 27, 1
   3              		.eabi_attribute 28, 1
   4              		.eabi_attribute 20, 1
   5              		.eabi_attribute 21, 1
   6              		.eabi_attribute 23, 3
   7              		.eabi_attribute 24, 1
   8              		.eabi_attribute 25, 1
   9              		.eabi_attribute 26, 1
  10              		.eabi_attribute 30, 6
  11              		.eabi_attribute 34, 1
  12              		.eabi_attribute 18, 4
  13              		.file	"stm32l4xx_hal_uart_ex.c"
  14              		.text
  15              	.Ltext0:
  16              		.cfi_sections	.debug_frame
  17              		.section	.text.HAL_RS485Ex_Init,"ax",%progbits
  18              		.align	1
  19              		.global	HAL_RS485Ex_Init
  20              		.syntax unified
  21              		.thumb
  22              		.thumb_func
  23              		.fpu fpv4-sp-d16
  25              	HAL_RS485Ex_Init:
  26              	.LFB126:
  27              		.file 1 "Drivers/STM32L4xx_HAL_Driver/Src/stm32l4xx_hal_uart_ex.c"
   1:Drivers/STM32L4xx_HAL_Driver/Src/stm32l4xx_hal_uart_ex.c **** /**
   2:Drivers/STM32L4xx_HAL_Driver/Src/stm32l4xx_hal_uart_ex.c ****   ******************************************************************************
   3:Drivers/STM32L4xx_HAL_Driver/Src/stm32l4xx_hal_uart_ex.c ****   * @file    stm32l4xx_hal_uart_ex.c
   4:Drivers/STM32L4xx_HAL_Driver/Src/stm32l4xx_hal_uart_ex.c ****   * @author  MCD Application Team
   5:Drivers/STM32L4xx_HAL_Driver/Src/stm32l4xx_hal_uart_ex.c ****   * @version V1.5.2
   6:Drivers/STM32L4xx_HAL_Driver/Src/stm32l4xx_hal_uart_ex.c ****   * @date    12-September-2016
   7:Drivers/STM32L4xx_HAL_Driver/Src/stm32l4xx_hal_uart_ex.c ****   * @brief   Extended UART HAL module driver.
   8:Drivers/STM32L4xx_HAL_Driver/Src/stm32l4xx_hal_uart_ex.c ****   *          This file provides firmware functions to manage the following extended
   9:Drivers/STM32L4xx_HAL_Driver/Src/stm32l4xx_hal_uart_ex.c ****   *          functionalities of the Universal Asynchronous Receiver Transmitter Peripheral (UART).
  10:Drivers/STM32L4xx_HAL_Driver/Src/stm32l4xx_hal_uart_ex.c ****   *           + Initialization and de-initialization functions
  11:Drivers/STM32L4xx_HAL_Driver/Src/stm32l4xx_hal_uart_ex.c ****   *           + Peripheral Control functions
  12:Drivers/STM32L4xx_HAL_Driver/Src/stm32l4xx_hal_uart_ex.c ****   *
  13:Drivers/STM32L4xx_HAL_Driver/Src/stm32l4xx_hal_uart_ex.c ****   *
  14:Drivers/STM32L4xx_HAL_Driver/Src/stm32l4xx_hal_uart_ex.c ****   @verbatim
  15:Drivers/STM32L4xx_HAL_Driver/Src/stm32l4xx_hal_uart_ex.c ****   ==============================================================================
  16:Drivers/STM32L4xx_HAL_Driver/Src/stm32l4xx_hal_uart_ex.c ****                ##### UART peripheral extended features  #####
  17:Drivers/STM32L4xx_HAL_Driver/Src/stm32l4xx_hal_uart_ex.c ****   ==============================================================================
  18:Drivers/STM32L4xx_HAL_Driver/Src/stm32l4xx_hal_uart_ex.c **** 
  19:Drivers/STM32L4xx_HAL_Driver/Src/stm32l4xx_hal_uart_ex.c ****     (#) Declare a UART_HandleTypeDef handle structure.
  20:Drivers/STM32L4xx_HAL_Driver/Src/stm32l4xx_hal_uart_ex.c **** 
  21:Drivers/STM32L4xx_HAL_Driver/Src/stm32l4xx_hal_uart_ex.c ****     (#) For the UART RS485 Driver Enable mode, initialize the UART registers
  22:Drivers/STM32L4xx_HAL_Driver/Src/stm32l4xx_hal_uart_ex.c ****         by calling the HAL_RS485Ex_Init() API.
  23:Drivers/STM32L4xx_HAL_Driver/Src/stm32l4xx_hal_uart_ex.c **** 
  24:Drivers/STM32L4xx_HAL_Driver/Src/stm32l4xx_hal_uart_ex.c **** 
  25:Drivers/STM32L4xx_HAL_Driver/Src/stm32l4xx_hal_uart_ex.c ****   @endverbatim
  26:Drivers/STM32L4xx_HAL_Driver/Src/stm32l4xx_hal_uart_ex.c ****   ******************************************************************************
  27:Drivers/STM32L4xx_HAL_Driver/Src/stm32l4xx_hal_uart_ex.c ****   * @attention
  28:Drivers/STM32L4xx_HAL_Driver/Src/stm32l4xx_hal_uart_ex.c ****   *
  29:Drivers/STM32L4xx_HAL_Driver/Src/stm32l4xx_hal_uart_ex.c ****   * <h2><center>&copy; COPYRIGHT(c) 2016 STMicroelectronics</center></h2>
  30:Drivers/STM32L4xx_HAL_Driver/Src/stm32l4xx_hal_uart_ex.c ****   *
  31:Drivers/STM32L4xx_HAL_Driver/Src/stm32l4xx_hal_uart_ex.c ****   * Redistribution and use in source and binary forms, with or without modification,
ARM GAS  /tmp/cc1ehK8Z.s 			page 2


  32:Drivers/STM32L4xx_HAL_Driver/Src/stm32l4xx_hal_uart_ex.c ****   * are permitted provided that the following conditions are met:
  33:Drivers/STM32L4xx_HAL_Driver/Src/stm32l4xx_hal_uart_ex.c ****   *   1. Redistributions of source code must retain the above copyright notice,
  34:Drivers/STM32L4xx_HAL_Driver/Src/stm32l4xx_hal_uart_ex.c ****   *      this list of conditions and the following disclaimer.
  35:Drivers/STM32L4xx_HAL_Driver/Src/stm32l4xx_hal_uart_ex.c ****   *   2. Redistributions in binary form must reproduce the above copyright notice,
  36:Drivers/STM32L4xx_HAL_Driver/Src/stm32l4xx_hal_uart_ex.c ****   *      this list of conditions and the following disclaimer in the documentation
  37:Drivers/STM32L4xx_HAL_Driver/Src/stm32l4xx_hal_uart_ex.c ****   *      and/or other materials provided with the distribution.
  38:Drivers/STM32L4xx_HAL_Driver/Src/stm32l4xx_hal_uart_ex.c ****   *   3. Neither the name of STMicroelectronics nor the names of its contributors
  39:Drivers/STM32L4xx_HAL_Driver/Src/stm32l4xx_hal_uart_ex.c ****   *      may be used to endorse or promote products derived from this software
  40:Drivers/STM32L4xx_HAL_Driver/Src/stm32l4xx_hal_uart_ex.c ****   *      without specific prior written permission.
  41:Drivers/STM32L4xx_HAL_Driver/Src/stm32l4xx_hal_uart_ex.c ****   *
  42:Drivers/STM32L4xx_HAL_Driver/Src/stm32l4xx_hal_uart_ex.c ****   * THIS SOFTWARE IS PROVIDED BY THE COPYRIGHT HOLDERS AND CONTRIBUTORS "AS IS"
  43:Drivers/STM32L4xx_HAL_Driver/Src/stm32l4xx_hal_uart_ex.c ****   * AND ANY EXPRESS OR IMPLIED WARRANTIES, INCLUDING, BUT NOT LIMITED TO, THE
  44:Drivers/STM32L4xx_HAL_Driver/Src/stm32l4xx_hal_uart_ex.c ****   * IMPLIED WARRANTIES OF MERCHANTABILITY AND FITNESS FOR A PARTICULAR PURPOSE ARE
  45:Drivers/STM32L4xx_HAL_Driver/Src/stm32l4xx_hal_uart_ex.c ****   * DISCLAIMED. IN NO EVENT SHALL THE COPYRIGHT HOLDER OR CONTRIBUTORS BE LIABLE
  46:Drivers/STM32L4xx_HAL_Driver/Src/stm32l4xx_hal_uart_ex.c ****   * FOR ANY DIRECT, INDIRECT, INCIDENTAL, SPECIAL, EXEMPLARY, OR CONSEQUENTIAL
  47:Drivers/STM32L4xx_HAL_Driver/Src/stm32l4xx_hal_uart_ex.c ****   * DAMAGES (INCLUDING, BUT NOT LIMITED TO, PROCUREMENT OF SUBSTITUTE GOODS OR
  48:Drivers/STM32L4xx_HAL_Driver/Src/stm32l4xx_hal_uart_ex.c ****   * SERVICES; LOSS OF USE, DATA, OR PROFITS; OR BUSINESS INTERRUPTION) HOWEVER
  49:Drivers/STM32L4xx_HAL_Driver/Src/stm32l4xx_hal_uart_ex.c ****   * CAUSED AND ON ANY THEORY OF LIABILITY, WHETHER IN CONTRACT, STRICT LIABILITY,
  50:Drivers/STM32L4xx_HAL_Driver/Src/stm32l4xx_hal_uart_ex.c ****   * OR TORT (INCLUDING NEGLIGENCE OR OTHERWISE) ARISING IN ANY WAY OUT OF THE USE
  51:Drivers/STM32L4xx_HAL_Driver/Src/stm32l4xx_hal_uart_ex.c ****   * OF THIS SOFTWARE, EVEN IF ADVISED OF THE POSSIBILITY OF SUCH DAMAGE.
  52:Drivers/STM32L4xx_HAL_Driver/Src/stm32l4xx_hal_uart_ex.c ****   *
  53:Drivers/STM32L4xx_HAL_Driver/Src/stm32l4xx_hal_uart_ex.c ****   ******************************************************************************
  54:Drivers/STM32L4xx_HAL_Driver/Src/stm32l4xx_hal_uart_ex.c ****   */
  55:Drivers/STM32L4xx_HAL_Driver/Src/stm32l4xx_hal_uart_ex.c **** 
  56:Drivers/STM32L4xx_HAL_Driver/Src/stm32l4xx_hal_uart_ex.c **** /* Includes ------------------------------------------------------------------*/
  57:Drivers/STM32L4xx_HAL_Driver/Src/stm32l4xx_hal_uart_ex.c **** #include "stm32l4xx_hal.h"
  58:Drivers/STM32L4xx_HAL_Driver/Src/stm32l4xx_hal_uart_ex.c **** 
  59:Drivers/STM32L4xx_HAL_Driver/Src/stm32l4xx_hal_uart_ex.c **** /** @addtogroup STM32L4xx_HAL_Driver
  60:Drivers/STM32L4xx_HAL_Driver/Src/stm32l4xx_hal_uart_ex.c ****   * @{
  61:Drivers/STM32L4xx_HAL_Driver/Src/stm32l4xx_hal_uart_ex.c ****   */
  62:Drivers/STM32L4xx_HAL_Driver/Src/stm32l4xx_hal_uart_ex.c **** 
  63:Drivers/STM32L4xx_HAL_Driver/Src/stm32l4xx_hal_uart_ex.c **** /** @defgroup UARTEx UARTEx
  64:Drivers/STM32L4xx_HAL_Driver/Src/stm32l4xx_hal_uart_ex.c ****   * @brief UART Extended HAL module driver
  65:Drivers/STM32L4xx_HAL_Driver/Src/stm32l4xx_hal_uart_ex.c ****   * @{
  66:Drivers/STM32L4xx_HAL_Driver/Src/stm32l4xx_hal_uart_ex.c ****   */
  67:Drivers/STM32L4xx_HAL_Driver/Src/stm32l4xx_hal_uart_ex.c **** 
  68:Drivers/STM32L4xx_HAL_Driver/Src/stm32l4xx_hal_uart_ex.c **** #ifdef HAL_UART_MODULE_ENABLED
  69:Drivers/STM32L4xx_HAL_Driver/Src/stm32l4xx_hal_uart_ex.c **** 
  70:Drivers/STM32L4xx_HAL_Driver/Src/stm32l4xx_hal_uart_ex.c **** /* Private typedef -----------------------------------------------------------*/
  71:Drivers/STM32L4xx_HAL_Driver/Src/stm32l4xx_hal_uart_ex.c **** /* Private define ------------------------------------------------------------*/
  72:Drivers/STM32L4xx_HAL_Driver/Src/stm32l4xx_hal_uart_ex.c **** /* Private macros ------------------------------------------------------------*/
  73:Drivers/STM32L4xx_HAL_Driver/Src/stm32l4xx_hal_uart_ex.c **** /* Private variables ---------------------------------------------------------*/
  74:Drivers/STM32L4xx_HAL_Driver/Src/stm32l4xx_hal_uart_ex.c **** /* Private function prototypes -----------------------------------------------*/
  75:Drivers/STM32L4xx_HAL_Driver/Src/stm32l4xx_hal_uart_ex.c **** /** @defgroup UARTEx_Private_Functions UARTEx Private Functions
  76:Drivers/STM32L4xx_HAL_Driver/Src/stm32l4xx_hal_uart_ex.c ****   * @{
  77:Drivers/STM32L4xx_HAL_Driver/Src/stm32l4xx_hal_uart_ex.c ****   */
  78:Drivers/STM32L4xx_HAL_Driver/Src/stm32l4xx_hal_uart_ex.c **** static void UARTEx_Wakeup_AddressConfig(UART_HandleTypeDef *huart, UART_WakeUpTypeDef WakeUpSelecti
  79:Drivers/STM32L4xx_HAL_Driver/Src/stm32l4xx_hal_uart_ex.c **** /**
  80:Drivers/STM32L4xx_HAL_Driver/Src/stm32l4xx_hal_uart_ex.c ****   * @}
  81:Drivers/STM32L4xx_HAL_Driver/Src/stm32l4xx_hal_uart_ex.c ****   */
  82:Drivers/STM32L4xx_HAL_Driver/Src/stm32l4xx_hal_uart_ex.c **** 
  83:Drivers/STM32L4xx_HAL_Driver/Src/stm32l4xx_hal_uart_ex.c **** /* Exported functions --------------------------------------------------------*/
  84:Drivers/STM32L4xx_HAL_Driver/Src/stm32l4xx_hal_uart_ex.c **** 
  85:Drivers/STM32L4xx_HAL_Driver/Src/stm32l4xx_hal_uart_ex.c **** /** @defgroup UARTEx_Exported_Functions  UARTEx Exported Functions
  86:Drivers/STM32L4xx_HAL_Driver/Src/stm32l4xx_hal_uart_ex.c ****   * @{
  87:Drivers/STM32L4xx_HAL_Driver/Src/stm32l4xx_hal_uart_ex.c ****   */
  88:Drivers/STM32L4xx_HAL_Driver/Src/stm32l4xx_hal_uart_ex.c **** 
ARM GAS  /tmp/cc1ehK8Z.s 			page 3


  89:Drivers/STM32L4xx_HAL_Driver/Src/stm32l4xx_hal_uart_ex.c **** /** @defgroup UARTEx_Exported_Functions_Group1 Initialization and de-initialization functions
  90:Drivers/STM32L4xx_HAL_Driver/Src/stm32l4xx_hal_uart_ex.c ****   * @brief    Extended Initialization and Configuration Functions
  91:Drivers/STM32L4xx_HAL_Driver/Src/stm32l4xx_hal_uart_ex.c ****   *
  92:Drivers/STM32L4xx_HAL_Driver/Src/stm32l4xx_hal_uart_ex.c **** @verbatim
  93:Drivers/STM32L4xx_HAL_Driver/Src/stm32l4xx_hal_uart_ex.c **** ===============================================================================
  94:Drivers/STM32L4xx_HAL_Driver/Src/stm32l4xx_hal_uart_ex.c ****             ##### Initialization and Configuration functions #####
  95:Drivers/STM32L4xx_HAL_Driver/Src/stm32l4xx_hal_uart_ex.c ****  ===============================================================================
  96:Drivers/STM32L4xx_HAL_Driver/Src/stm32l4xx_hal_uart_ex.c ****     [..]
  97:Drivers/STM32L4xx_HAL_Driver/Src/stm32l4xx_hal_uart_ex.c ****     This subsection provides a set of functions allowing to initialize the USARTx or the UARTy
  98:Drivers/STM32L4xx_HAL_Driver/Src/stm32l4xx_hal_uart_ex.c ****     in asynchronous mode.
  99:Drivers/STM32L4xx_HAL_Driver/Src/stm32l4xx_hal_uart_ex.c ****       (+) For the asynchronous mode the parameters below can be configured:
 100:Drivers/STM32L4xx_HAL_Driver/Src/stm32l4xx_hal_uart_ex.c ****         (++) Baud Rate
 101:Drivers/STM32L4xx_HAL_Driver/Src/stm32l4xx_hal_uart_ex.c ****         (++) Word Length
 102:Drivers/STM32L4xx_HAL_Driver/Src/stm32l4xx_hal_uart_ex.c ****         (++) Stop Bit
 103:Drivers/STM32L4xx_HAL_Driver/Src/stm32l4xx_hal_uart_ex.c ****         (++) Parity: If the parity is enabled, then the MSB bit of the data written
 104:Drivers/STM32L4xx_HAL_Driver/Src/stm32l4xx_hal_uart_ex.c ****              in the data register is transmitted but is changed by the parity bit.
 105:Drivers/STM32L4xx_HAL_Driver/Src/stm32l4xx_hal_uart_ex.c ****         (++) Hardware flow control
 106:Drivers/STM32L4xx_HAL_Driver/Src/stm32l4xx_hal_uart_ex.c ****         (++) Receiver/transmitter modes
 107:Drivers/STM32L4xx_HAL_Driver/Src/stm32l4xx_hal_uart_ex.c ****         (++) Over Sampling Method
 108:Drivers/STM32L4xx_HAL_Driver/Src/stm32l4xx_hal_uart_ex.c ****         (++) One-Bit Sampling Method
 109:Drivers/STM32L4xx_HAL_Driver/Src/stm32l4xx_hal_uart_ex.c ****       (+) For the asynchronous mode, the following advanced features can be configured as well:
 110:Drivers/STM32L4xx_HAL_Driver/Src/stm32l4xx_hal_uart_ex.c ****         (++) TX and/or RX pin level inversion
 111:Drivers/STM32L4xx_HAL_Driver/Src/stm32l4xx_hal_uart_ex.c ****         (++) data logical level inversion
 112:Drivers/STM32L4xx_HAL_Driver/Src/stm32l4xx_hal_uart_ex.c ****         (++) RX and TX pins swap
 113:Drivers/STM32L4xx_HAL_Driver/Src/stm32l4xx_hal_uart_ex.c ****         (++) RX overrun detection disabling
 114:Drivers/STM32L4xx_HAL_Driver/Src/stm32l4xx_hal_uart_ex.c ****         (++) DMA disabling on RX error
 115:Drivers/STM32L4xx_HAL_Driver/Src/stm32l4xx_hal_uart_ex.c ****         (++) MSB first on communication line
 116:Drivers/STM32L4xx_HAL_Driver/Src/stm32l4xx_hal_uart_ex.c ****         (++) auto Baud rate detection
 117:Drivers/STM32L4xx_HAL_Driver/Src/stm32l4xx_hal_uart_ex.c ****     [..]
 118:Drivers/STM32L4xx_HAL_Driver/Src/stm32l4xx_hal_uart_ex.c ****     The HAL_RS485Ex_Init() API follows the UART RS485 mode configuration
 119:Drivers/STM32L4xx_HAL_Driver/Src/stm32l4xx_hal_uart_ex.c ****      procedures (details for the procedures are available in reference manual).
 120:Drivers/STM32L4xx_HAL_Driver/Src/stm32l4xx_hal_uart_ex.c **** 
 121:Drivers/STM32L4xx_HAL_Driver/Src/stm32l4xx_hal_uart_ex.c **** @endverbatim
 122:Drivers/STM32L4xx_HAL_Driver/Src/stm32l4xx_hal_uart_ex.c **** 
 123:Drivers/STM32L4xx_HAL_Driver/Src/stm32l4xx_hal_uart_ex.c ****   Depending on the frame length defined by the M1 and M0 bits (7-bit, 
 124:Drivers/STM32L4xx_HAL_Driver/Src/stm32l4xx_hal_uart_ex.c ****   8-bit or 9-bit), the possible UART formats are listed in the 
 125:Drivers/STM32L4xx_HAL_Driver/Src/stm32l4xx_hal_uart_ex.c ****   following table.
 126:Drivers/STM32L4xx_HAL_Driver/Src/stm32l4xx_hal_uart_ex.c ****   
 127:Drivers/STM32L4xx_HAL_Driver/Src/stm32l4xx_hal_uart_ex.c ****     Table 1. UART frame format.
 128:Drivers/STM32L4xx_HAL_Driver/Src/stm32l4xx_hal_uart_ex.c ****     +-----------------------------------------------------------------------+
 129:Drivers/STM32L4xx_HAL_Driver/Src/stm32l4xx_hal_uart_ex.c ****     |  M1 bit |  M0 bit |  PCE bit  |             UART frame                |
 130:Drivers/STM32L4xx_HAL_Driver/Src/stm32l4xx_hal_uart_ex.c ****     |---------|---------|-----------|---------------------------------------|
 131:Drivers/STM32L4xx_HAL_Driver/Src/stm32l4xx_hal_uart_ex.c ****     |    0    |    0    |    0      |    | SB |    8 bit data   | STB |     |
 132:Drivers/STM32L4xx_HAL_Driver/Src/stm32l4xx_hal_uart_ex.c ****     |---------|---------|-----------|---------------------------------------|
 133:Drivers/STM32L4xx_HAL_Driver/Src/stm32l4xx_hal_uart_ex.c ****     |    0    |    0    |    1      |    | SB | 7 bit data | PB | STB |     |
 134:Drivers/STM32L4xx_HAL_Driver/Src/stm32l4xx_hal_uart_ex.c ****     |---------|---------|-----------|---------------------------------------|
 135:Drivers/STM32L4xx_HAL_Driver/Src/stm32l4xx_hal_uart_ex.c ****     |    0    |    1    |    0      |    | SB |    9 bit data   | STB |     |
 136:Drivers/STM32L4xx_HAL_Driver/Src/stm32l4xx_hal_uart_ex.c ****     |---------|---------|-----------|---------------------------------------|
 137:Drivers/STM32L4xx_HAL_Driver/Src/stm32l4xx_hal_uart_ex.c ****     |    0    |    1    |    1      |    | SB | 8 bit data | PB | STB |     |
 138:Drivers/STM32L4xx_HAL_Driver/Src/stm32l4xx_hal_uart_ex.c ****     |---------|---------|-----------|---------------------------------------|
 139:Drivers/STM32L4xx_HAL_Driver/Src/stm32l4xx_hal_uart_ex.c ****     |    1    |    0    |    0      |    | SB |    7 bit data   | STB |     |
 140:Drivers/STM32L4xx_HAL_Driver/Src/stm32l4xx_hal_uart_ex.c ****     |---------|---------|-----------|---------------------------------------|
 141:Drivers/STM32L4xx_HAL_Driver/Src/stm32l4xx_hal_uart_ex.c ****     |    1    |    0    |    1      |    | SB | 6 bit data | PB | STB |     |
 142:Drivers/STM32L4xx_HAL_Driver/Src/stm32l4xx_hal_uart_ex.c ****     +-----------------------------------------------------------------------+
 143:Drivers/STM32L4xx_HAL_Driver/Src/stm32l4xx_hal_uart_ex.c **** 
 144:Drivers/STM32L4xx_HAL_Driver/Src/stm32l4xx_hal_uart_ex.c ****   * @{
 145:Drivers/STM32L4xx_HAL_Driver/Src/stm32l4xx_hal_uart_ex.c ****   */
ARM GAS  /tmp/cc1ehK8Z.s 			page 4


 146:Drivers/STM32L4xx_HAL_Driver/Src/stm32l4xx_hal_uart_ex.c **** 
 147:Drivers/STM32L4xx_HAL_Driver/Src/stm32l4xx_hal_uart_ex.c **** /**
 148:Drivers/STM32L4xx_HAL_Driver/Src/stm32l4xx_hal_uart_ex.c ****   * @brief Initialize the RS485 Driver enable feature according to the specified
 149:Drivers/STM32L4xx_HAL_Driver/Src/stm32l4xx_hal_uart_ex.c ****   *         parameters in the UART_InitTypeDef and creates the associated handle.
 150:Drivers/STM32L4xx_HAL_Driver/Src/stm32l4xx_hal_uart_ex.c ****   * @param huart: UART handle.
 151:Drivers/STM32L4xx_HAL_Driver/Src/stm32l4xx_hal_uart_ex.c ****   * @param Polarity: select the driver enable polarity.
 152:Drivers/STM32L4xx_HAL_Driver/Src/stm32l4xx_hal_uart_ex.c ****   *        This parameter can be one of the following values:
 153:Drivers/STM32L4xx_HAL_Driver/Src/stm32l4xx_hal_uart_ex.c ****   *          @arg @ref UART_DE_POLARITY_HIGH DE signal is active high
 154:Drivers/STM32L4xx_HAL_Driver/Src/stm32l4xx_hal_uart_ex.c ****   *          @arg @ref UART_DE_POLARITY_LOW  DE signal is active low
 155:Drivers/STM32L4xx_HAL_Driver/Src/stm32l4xx_hal_uart_ex.c ****   * @param AssertionTime: Driver Enable assertion time:
 156:Drivers/STM32L4xx_HAL_Driver/Src/stm32l4xx_hal_uart_ex.c ****   *                         5-bit value defining the time between the activation of the DE (Driver 
 157:Drivers/STM32L4xx_HAL_Driver/Src/stm32l4xx_hal_uart_ex.c ****   *                         signal and the beginning of the start bit. It is expressed in sample ti
 158:Drivers/STM32L4xx_HAL_Driver/Src/stm32l4xx_hal_uart_ex.c ****   *                         units (1/8 or 1/16 bit time, depending on the oversampling rate)
 159:Drivers/STM32L4xx_HAL_Driver/Src/stm32l4xx_hal_uart_ex.c ****   * @param DeassertionTime: Driver Enable deassertion time:
 160:Drivers/STM32L4xx_HAL_Driver/Src/stm32l4xx_hal_uart_ex.c ****   *                         5-bit value defining the time between the end of the last stop bit, in 
 161:Drivers/STM32L4xx_HAL_Driver/Src/stm32l4xx_hal_uart_ex.c ****   *                         transmitted message, and the de-activation of the DE (Driver Enable) si
 162:Drivers/STM32L4xx_HAL_Driver/Src/stm32l4xx_hal_uart_ex.c ****   *                         It is expressed in sample time units (1/8 or 1/16 bit time, depending o
 163:Drivers/STM32L4xx_HAL_Driver/Src/stm32l4xx_hal_uart_ex.c ****   *                         oversampling rate).
 164:Drivers/STM32L4xx_HAL_Driver/Src/stm32l4xx_hal_uart_ex.c ****   * @retval HAL status
 165:Drivers/STM32L4xx_HAL_Driver/Src/stm32l4xx_hal_uart_ex.c ****   */
 166:Drivers/STM32L4xx_HAL_Driver/Src/stm32l4xx_hal_uart_ex.c **** HAL_StatusTypeDef HAL_RS485Ex_Init(UART_HandleTypeDef *huart, uint32_t Polarity, uint32_t Assertion
 167:Drivers/STM32L4xx_HAL_Driver/Src/stm32l4xx_hal_uart_ex.c **** {
  28              		.loc 1 167 0
  29              		.cfi_startproc
  30              		@ args = 0, pretend = 0, frame = 24
  31              		@ frame_needed = 1, uses_anonymous_args = 0
  32 0000 80B5     		push	{r7, lr}
  33              	.LCFI0:
  34              		.cfi_def_cfa_offset 8
  35              		.cfi_offset 7, -8
  36              		.cfi_offset 14, -4
  37 0002 86B0     		sub	sp, sp, #24
  38              	.LCFI1:
  39              		.cfi_def_cfa_offset 32
  40 0004 00AF     		add	r7, sp, #0
  41              	.LCFI2:
  42              		.cfi_def_cfa_register 7
  43 0006 F860     		str	r0, [r7, #12]
  44 0008 B960     		str	r1, [r7, #8]
  45 000a 7A60     		str	r2, [r7, #4]
  46 000c 3B60     		str	r3, [r7]
 168:Drivers/STM32L4xx_HAL_Driver/Src/stm32l4xx_hal_uart_ex.c ****   uint32_t temp = 0x0;
  47              		.loc 1 168 0
  48 000e 0023     		movs	r3, #0
  49 0010 7B61     		str	r3, [r7, #20]
 169:Drivers/STM32L4xx_HAL_Driver/Src/stm32l4xx_hal_uart_ex.c **** 
 170:Drivers/STM32L4xx_HAL_Driver/Src/stm32l4xx_hal_uart_ex.c ****   /* Check the UART handle allocation */
 171:Drivers/STM32L4xx_HAL_Driver/Src/stm32l4xx_hal_uart_ex.c ****   if(huart == NULL)
  50              		.loc 1 171 0
  51 0012 FB68     		ldr	r3, [r7, #12]
  52 0014 002B     		cmp	r3, #0
  53 0016 01D1     		bne	.L2
 172:Drivers/STM32L4xx_HAL_Driver/Src/stm32l4xx_hal_uart_ex.c ****   {
 173:Drivers/STM32L4xx_HAL_Driver/Src/stm32l4xx_hal_uart_ex.c ****     return HAL_ERROR;
  54              		.loc 1 173 0
  55 0018 0123     		movs	r3, #1
  56 001a 59E0     		b	.L3
ARM GAS  /tmp/cc1ehK8Z.s 			page 5


  57              	.L2:
 174:Drivers/STM32L4xx_HAL_Driver/Src/stm32l4xx_hal_uart_ex.c ****   }
 175:Drivers/STM32L4xx_HAL_Driver/Src/stm32l4xx_hal_uart_ex.c ****   /* Check the Driver Enable UART instance */
 176:Drivers/STM32L4xx_HAL_Driver/Src/stm32l4xx_hal_uart_ex.c ****   assert_param(IS_UART_DRIVER_ENABLE_INSTANCE(huart->Instance));
 177:Drivers/STM32L4xx_HAL_Driver/Src/stm32l4xx_hal_uart_ex.c **** 
 178:Drivers/STM32L4xx_HAL_Driver/Src/stm32l4xx_hal_uart_ex.c ****   /* Check the Driver Enable polarity */
 179:Drivers/STM32L4xx_HAL_Driver/Src/stm32l4xx_hal_uart_ex.c ****   assert_param(IS_UART_DE_POLARITY(Polarity));
 180:Drivers/STM32L4xx_HAL_Driver/Src/stm32l4xx_hal_uart_ex.c **** 
 181:Drivers/STM32L4xx_HAL_Driver/Src/stm32l4xx_hal_uart_ex.c ****   /* Check the Driver Enable assertion time */
 182:Drivers/STM32L4xx_HAL_Driver/Src/stm32l4xx_hal_uart_ex.c ****   assert_param(IS_UART_ASSERTIONTIME(AssertionTime));
 183:Drivers/STM32L4xx_HAL_Driver/Src/stm32l4xx_hal_uart_ex.c **** 
 184:Drivers/STM32L4xx_HAL_Driver/Src/stm32l4xx_hal_uart_ex.c ****   /* Check the Driver Enable deassertion time */
 185:Drivers/STM32L4xx_HAL_Driver/Src/stm32l4xx_hal_uart_ex.c ****   assert_param(IS_UART_DEASSERTIONTIME(DeassertionTime));
 186:Drivers/STM32L4xx_HAL_Driver/Src/stm32l4xx_hal_uart_ex.c **** 
 187:Drivers/STM32L4xx_HAL_Driver/Src/stm32l4xx_hal_uart_ex.c ****   if(huart->gState == HAL_UART_STATE_RESET)
  58              		.loc 1 187 0
  59 001c FB68     		ldr	r3, [r7, #12]
  60 001e 93F86930 		ldrb	r3, [r3, #105]
  61 0022 DBB2     		uxtb	r3, r3
  62 0024 002B     		cmp	r3, #0
  63 0026 06D1     		bne	.L4
 188:Drivers/STM32L4xx_HAL_Driver/Src/stm32l4xx_hal_uart_ex.c ****   {
 189:Drivers/STM32L4xx_HAL_Driver/Src/stm32l4xx_hal_uart_ex.c ****     /* Allocate lock resource and initialize it */
 190:Drivers/STM32L4xx_HAL_Driver/Src/stm32l4xx_hal_uart_ex.c ****     huart->Lock = HAL_UNLOCKED;
  64              		.loc 1 190 0
  65 0028 FB68     		ldr	r3, [r7, #12]
  66 002a 0022     		movs	r2, #0
  67 002c 83F86820 		strb	r2, [r3, #104]
 191:Drivers/STM32L4xx_HAL_Driver/Src/stm32l4xx_hal_uart_ex.c **** 
 192:Drivers/STM32L4xx_HAL_Driver/Src/stm32l4xx_hal_uart_ex.c ****     /* Init the low level hardware : GPIO, CLOCK, CORTEX */
 193:Drivers/STM32L4xx_HAL_Driver/Src/stm32l4xx_hal_uart_ex.c ****     HAL_UART_MspInit(huart);
  68              		.loc 1 193 0
  69 0030 F868     		ldr	r0, [r7, #12]
  70 0032 FFF7FEFF 		bl	HAL_UART_MspInit
  71              	.L4:
 194:Drivers/STM32L4xx_HAL_Driver/Src/stm32l4xx_hal_uart_ex.c ****   }
 195:Drivers/STM32L4xx_HAL_Driver/Src/stm32l4xx_hal_uart_ex.c **** 
 196:Drivers/STM32L4xx_HAL_Driver/Src/stm32l4xx_hal_uart_ex.c ****   huart->gState = HAL_UART_STATE_BUSY;
  72              		.loc 1 196 0
  73 0036 FB68     		ldr	r3, [r7, #12]
  74 0038 2422     		movs	r2, #36
  75 003a 83F86920 		strb	r2, [r3, #105]
 197:Drivers/STM32L4xx_HAL_Driver/Src/stm32l4xx_hal_uart_ex.c **** 
 198:Drivers/STM32L4xx_HAL_Driver/Src/stm32l4xx_hal_uart_ex.c ****   /* Disable the Peripheral */
 199:Drivers/STM32L4xx_HAL_Driver/Src/stm32l4xx_hal_uart_ex.c ****   __HAL_UART_DISABLE(huart);
  76              		.loc 1 199 0
  77 003e FB68     		ldr	r3, [r7, #12]
  78 0040 1B68     		ldr	r3, [r3]
  79 0042 FA68     		ldr	r2, [r7, #12]
  80 0044 1268     		ldr	r2, [r2]
  81 0046 1268     		ldr	r2, [r2]
  82 0048 22F00102 		bic	r2, r2, #1
  83 004c 1A60     		str	r2, [r3]
 200:Drivers/STM32L4xx_HAL_Driver/Src/stm32l4xx_hal_uart_ex.c **** 
 201:Drivers/STM32L4xx_HAL_Driver/Src/stm32l4xx_hal_uart_ex.c ****   /* Set the UART Communication parameters */
 202:Drivers/STM32L4xx_HAL_Driver/Src/stm32l4xx_hal_uart_ex.c ****   if (UART_SetConfig(huart) == HAL_ERROR)
  84              		.loc 1 202 0
ARM GAS  /tmp/cc1ehK8Z.s 			page 6


  85 004e F868     		ldr	r0, [r7, #12]
  86 0050 FFF7FEFF 		bl	UART_SetConfig
  87 0054 0346     		mov	r3, r0
  88 0056 012B     		cmp	r3, #1
  89 0058 01D1     		bne	.L5
 203:Drivers/STM32L4xx_HAL_Driver/Src/stm32l4xx_hal_uart_ex.c ****   {
 204:Drivers/STM32L4xx_HAL_Driver/Src/stm32l4xx_hal_uart_ex.c ****     return HAL_ERROR;
  90              		.loc 1 204 0
  91 005a 0123     		movs	r3, #1
  92 005c 38E0     		b	.L3
  93              	.L5:
 205:Drivers/STM32L4xx_HAL_Driver/Src/stm32l4xx_hal_uart_ex.c ****   }
 206:Drivers/STM32L4xx_HAL_Driver/Src/stm32l4xx_hal_uart_ex.c **** 
 207:Drivers/STM32L4xx_HAL_Driver/Src/stm32l4xx_hal_uart_ex.c ****   if(huart->AdvancedInit.AdvFeatureInit != UART_ADVFEATURE_NO_INIT)
  94              		.loc 1 207 0
  95 005e FB68     		ldr	r3, [r7, #12]
  96 0060 5B6A     		ldr	r3, [r3, #36]
  97 0062 002B     		cmp	r3, #0
  98 0064 02D0     		beq	.L6
 208:Drivers/STM32L4xx_HAL_Driver/Src/stm32l4xx_hal_uart_ex.c ****   {
 209:Drivers/STM32L4xx_HAL_Driver/Src/stm32l4xx_hal_uart_ex.c ****     UART_AdvFeatureConfig(huart);
  99              		.loc 1 209 0
 100 0066 F868     		ldr	r0, [r7, #12]
 101 0068 FFF7FEFF 		bl	UART_AdvFeatureConfig
 102              	.L6:
 210:Drivers/STM32L4xx_HAL_Driver/Src/stm32l4xx_hal_uart_ex.c ****   }
 211:Drivers/STM32L4xx_HAL_Driver/Src/stm32l4xx_hal_uart_ex.c **** 
 212:Drivers/STM32L4xx_HAL_Driver/Src/stm32l4xx_hal_uart_ex.c ****   /* Enable the Driver Enable mode by setting the DEM bit in the CR3 register */
 213:Drivers/STM32L4xx_HAL_Driver/Src/stm32l4xx_hal_uart_ex.c ****   SET_BIT(huart->Instance->CR3, USART_CR3_DEM);
 103              		.loc 1 213 0
 104 006c FB68     		ldr	r3, [r7, #12]
 105 006e 1B68     		ldr	r3, [r3]
 106 0070 FA68     		ldr	r2, [r7, #12]
 107 0072 1268     		ldr	r2, [r2]
 108 0074 9268     		ldr	r2, [r2, #8]
 109 0076 42F48042 		orr	r2, r2, #16384
 110 007a 9A60     		str	r2, [r3, #8]
 214:Drivers/STM32L4xx_HAL_Driver/Src/stm32l4xx_hal_uart_ex.c **** 
 215:Drivers/STM32L4xx_HAL_Driver/Src/stm32l4xx_hal_uart_ex.c ****   /* Set the Driver Enable polarity */
 216:Drivers/STM32L4xx_HAL_Driver/Src/stm32l4xx_hal_uart_ex.c ****   MODIFY_REG(huart->Instance->CR3, USART_CR3_DEP, Polarity);
 111              		.loc 1 216 0
 112 007c FB68     		ldr	r3, [r7, #12]
 113 007e 1B68     		ldr	r3, [r3]
 114 0080 FA68     		ldr	r2, [r7, #12]
 115 0082 1268     		ldr	r2, [r2]
 116 0084 9268     		ldr	r2, [r2, #8]
 117 0086 22F40041 		bic	r1, r2, #32768
 118 008a BA68     		ldr	r2, [r7, #8]
 119 008c 0A43     		orrs	r2, r2, r1
 120 008e 9A60     		str	r2, [r3, #8]
 217:Drivers/STM32L4xx_HAL_Driver/Src/stm32l4xx_hal_uart_ex.c **** 
 218:Drivers/STM32L4xx_HAL_Driver/Src/stm32l4xx_hal_uart_ex.c ****   /* Set the Driver Enable assertion and deassertion times */
 219:Drivers/STM32L4xx_HAL_Driver/Src/stm32l4xx_hal_uart_ex.c ****   temp = (AssertionTime << UART_CR1_DEAT_ADDRESS_LSB_POS);
 121              		.loc 1 219 0
 122 0090 7B68     		ldr	r3, [r7, #4]
 123 0092 5B05     		lsls	r3, r3, #21
 124 0094 7B61     		str	r3, [r7, #20]
ARM GAS  /tmp/cc1ehK8Z.s 			page 7


 220:Drivers/STM32L4xx_HAL_Driver/Src/stm32l4xx_hal_uart_ex.c ****   temp |= (DeassertionTime << UART_CR1_DEDT_ADDRESS_LSB_POS);
 125              		.loc 1 220 0
 126 0096 3B68     		ldr	r3, [r7]
 127 0098 1B04     		lsls	r3, r3, #16
 128 009a 7A69     		ldr	r2, [r7, #20]
 129 009c 1343     		orrs	r3, r3, r2
 130 009e 7B61     		str	r3, [r7, #20]
 221:Drivers/STM32L4xx_HAL_Driver/Src/stm32l4xx_hal_uart_ex.c ****   MODIFY_REG(huart->Instance->CR1, (USART_CR1_DEDT|USART_CR1_DEAT), temp);
 131              		.loc 1 221 0
 132 00a0 FB68     		ldr	r3, [r7, #12]
 133 00a2 1A68     		ldr	r2, [r3]
 134 00a4 FB68     		ldr	r3, [r7, #12]
 135 00a6 1B68     		ldr	r3, [r3]
 136 00a8 1B68     		ldr	r3, [r3]
 137 00aa 23F07F73 		bic	r3, r3, #66846720
 138 00ae 23F44033 		bic	r3, r3, #196608
 139 00b2 7969     		ldr	r1, [r7, #20]
 140 00b4 0B43     		orrs	r3, r3, r1
 141 00b6 1360     		str	r3, [r2]
 222:Drivers/STM32L4xx_HAL_Driver/Src/stm32l4xx_hal_uart_ex.c **** 
 223:Drivers/STM32L4xx_HAL_Driver/Src/stm32l4xx_hal_uart_ex.c ****   /* Enable the Peripheral */
 224:Drivers/STM32L4xx_HAL_Driver/Src/stm32l4xx_hal_uart_ex.c ****   __HAL_UART_ENABLE(huart);
 142              		.loc 1 224 0
 143 00b8 FB68     		ldr	r3, [r7, #12]
 144 00ba 1B68     		ldr	r3, [r3]
 145 00bc FA68     		ldr	r2, [r7, #12]
 146 00be 1268     		ldr	r2, [r2]
 147 00c0 1268     		ldr	r2, [r2]
 148 00c2 42F00102 		orr	r2, r2, #1
 149 00c6 1A60     		str	r2, [r3]
 225:Drivers/STM32L4xx_HAL_Driver/Src/stm32l4xx_hal_uart_ex.c **** 
 226:Drivers/STM32L4xx_HAL_Driver/Src/stm32l4xx_hal_uart_ex.c ****   /* TEACK and/or REACK to check before moving huart->gState and huart->RxState to Ready */
 227:Drivers/STM32L4xx_HAL_Driver/Src/stm32l4xx_hal_uart_ex.c ****   return (UART_CheckIdleState(huart));
 150              		.loc 1 227 0
 151 00c8 F868     		ldr	r0, [r7, #12]
 152 00ca FFF7FEFF 		bl	UART_CheckIdleState
 153 00ce 0346     		mov	r3, r0
 154              	.L3:
 228:Drivers/STM32L4xx_HAL_Driver/Src/stm32l4xx_hal_uart_ex.c **** }
 155              		.loc 1 228 0
 156 00d0 1846     		mov	r0, r3
 157 00d2 1837     		adds	r7, r7, #24
 158              	.LCFI3:
 159              		.cfi_def_cfa_offset 8
 160 00d4 BD46     		mov	sp, r7
 161              	.LCFI4:
 162              		.cfi_def_cfa_register 13
 163              		@ sp needed
 164 00d6 80BD     		pop	{r7, pc}
 165              		.cfi_endproc
 166              	.LFE126:
 168              		.section	.text.HAL_MultiProcessorEx_AddressLength_Set,"ax",%progbits
 169              		.align	1
 170              		.global	HAL_MultiProcessorEx_AddressLength_Set
 171              		.syntax unified
 172              		.thumb
 173              		.thumb_func
ARM GAS  /tmp/cc1ehK8Z.s 			page 8


 174              		.fpu fpv4-sp-d16
 176              	HAL_MultiProcessorEx_AddressLength_Set:
 177              	.LFB127:
 229:Drivers/STM32L4xx_HAL_Driver/Src/stm32l4xx_hal_uart_ex.c **** 
 230:Drivers/STM32L4xx_HAL_Driver/Src/stm32l4xx_hal_uart_ex.c **** 
 231:Drivers/STM32L4xx_HAL_Driver/Src/stm32l4xx_hal_uart_ex.c **** /**
 232:Drivers/STM32L4xx_HAL_Driver/Src/stm32l4xx_hal_uart_ex.c ****   * @}
 233:Drivers/STM32L4xx_HAL_Driver/Src/stm32l4xx_hal_uart_ex.c ****   */
 234:Drivers/STM32L4xx_HAL_Driver/Src/stm32l4xx_hal_uart_ex.c **** 
 235:Drivers/STM32L4xx_HAL_Driver/Src/stm32l4xx_hal_uart_ex.c **** /** @defgroup UARTEx_Exported_Functions_Group3 Peripheral Control functions
 236:Drivers/STM32L4xx_HAL_Driver/Src/stm32l4xx_hal_uart_ex.c ****   * @brief    Extended Peripheral Control functions
 237:Drivers/STM32L4xx_HAL_Driver/Src/stm32l4xx_hal_uart_ex.c ****  *
 238:Drivers/STM32L4xx_HAL_Driver/Src/stm32l4xx_hal_uart_ex.c **** @verbatim
 239:Drivers/STM32L4xx_HAL_Driver/Src/stm32l4xx_hal_uart_ex.c ****  ===============================================================================
 240:Drivers/STM32L4xx_HAL_Driver/Src/stm32l4xx_hal_uart_ex.c ****                       ##### Peripheral Control functions #####
 241:Drivers/STM32L4xx_HAL_Driver/Src/stm32l4xx_hal_uart_ex.c ****  ===============================================================================
 242:Drivers/STM32L4xx_HAL_Driver/Src/stm32l4xx_hal_uart_ex.c ****     [..] This section provides the following functions:
 243:Drivers/STM32L4xx_HAL_Driver/Src/stm32l4xx_hal_uart_ex.c ****      (+) HAL_UARTEx_EnableClockStopMode() API enables the UART clock (HSI or LSE only) during stop 
 244:Drivers/STM32L4xx_HAL_Driver/Src/stm32l4xx_hal_uart_ex.c ****      (+) HAL_UARTEx_DisableClockStopMode() API disables the above functionality
 245:Drivers/STM32L4xx_HAL_Driver/Src/stm32l4xx_hal_uart_ex.c ****      (+) HAL_MultiProcessorEx_AddressLength_Set() API optionally sets the UART node address
 246:Drivers/STM32L4xx_HAL_Driver/Src/stm32l4xx_hal_uart_ex.c ****          detection length to more than 4 bits for multiprocessor address mark wake up.
 247:Drivers/STM32L4xx_HAL_Driver/Src/stm32l4xx_hal_uart_ex.c ****      (+) HAL_UARTEx_StopModeWakeUpSourceConfig() API defines the wake-up from stop mode
 248:Drivers/STM32L4xx_HAL_Driver/Src/stm32l4xx_hal_uart_ex.c ****          trigger: address match, Start Bit detection or RXNE bit status.
 249:Drivers/STM32L4xx_HAL_Driver/Src/stm32l4xx_hal_uart_ex.c ****      (+) HAL_UARTEx_EnableStopMode() API enables the UART to wake up the MCU from stop mode
 250:Drivers/STM32L4xx_HAL_Driver/Src/stm32l4xx_hal_uart_ex.c ****      (+) HAL_UARTEx_DisableStopMode() API disables the above functionality
 251:Drivers/STM32L4xx_HAL_Driver/Src/stm32l4xx_hal_uart_ex.c ****      (+) HAL_UARTEx_WakeupCallback() called upon UART wakeup interrupt
 252:Drivers/STM32L4xx_HAL_Driver/Src/stm32l4xx_hal_uart_ex.c **** 
 253:Drivers/STM32L4xx_HAL_Driver/Src/stm32l4xx_hal_uart_ex.c **** 
 254:Drivers/STM32L4xx_HAL_Driver/Src/stm32l4xx_hal_uart_ex.c **** @endverbatim
 255:Drivers/STM32L4xx_HAL_Driver/Src/stm32l4xx_hal_uart_ex.c ****   * @{
 256:Drivers/STM32L4xx_HAL_Driver/Src/stm32l4xx_hal_uart_ex.c ****   */
 257:Drivers/STM32L4xx_HAL_Driver/Src/stm32l4xx_hal_uart_ex.c **** 
 258:Drivers/STM32L4xx_HAL_Driver/Src/stm32l4xx_hal_uart_ex.c **** 
 259:Drivers/STM32L4xx_HAL_Driver/Src/stm32l4xx_hal_uart_ex.c **** 
 260:Drivers/STM32L4xx_HAL_Driver/Src/stm32l4xx_hal_uart_ex.c **** 
 261:Drivers/STM32L4xx_HAL_Driver/Src/stm32l4xx_hal_uart_ex.c **** /**
 262:Drivers/STM32L4xx_HAL_Driver/Src/stm32l4xx_hal_uart_ex.c ****   * @brief By default in multiprocessor mode, when the wake up method is set
 263:Drivers/STM32L4xx_HAL_Driver/Src/stm32l4xx_hal_uart_ex.c ****   *        to address mark, the UART handles only 4-bit long addresses detection;
 264:Drivers/STM32L4xx_HAL_Driver/Src/stm32l4xx_hal_uart_ex.c ****   *        this API allows to enable longer addresses detection (6-, 7- or 8-bit
 265:Drivers/STM32L4xx_HAL_Driver/Src/stm32l4xx_hal_uart_ex.c ****   *        long).
 266:Drivers/STM32L4xx_HAL_Driver/Src/stm32l4xx_hal_uart_ex.c ****   * @note  Addresses detection lengths are: 6-bit address detection in 7-bit data mode, 
 267:Drivers/STM32L4xx_HAL_Driver/Src/stm32l4xx_hal_uart_ex.c ****   *        7-bit address detection in 8-bit data mode, 8-bit address detection in 9-bit data mode.
 268:Drivers/STM32L4xx_HAL_Driver/Src/stm32l4xx_hal_uart_ex.c ****   * @param huart: UART handle.
 269:Drivers/STM32L4xx_HAL_Driver/Src/stm32l4xx_hal_uart_ex.c ****   * @param AddressLength: this parameter can be one of the following values:
 270:Drivers/STM32L4xx_HAL_Driver/Src/stm32l4xx_hal_uart_ex.c ****   *          @arg @ref UART_ADDRESS_DETECT_4B 4-bit long address
 271:Drivers/STM32L4xx_HAL_Driver/Src/stm32l4xx_hal_uart_ex.c ****   *          @arg @ref UART_ADDRESS_DETECT_7B 6-, 7- or 8-bit long address
 272:Drivers/STM32L4xx_HAL_Driver/Src/stm32l4xx_hal_uart_ex.c ****   * @retval HAL status
 273:Drivers/STM32L4xx_HAL_Driver/Src/stm32l4xx_hal_uart_ex.c ****   */
 274:Drivers/STM32L4xx_HAL_Driver/Src/stm32l4xx_hal_uart_ex.c **** HAL_StatusTypeDef HAL_MultiProcessorEx_AddressLength_Set(UART_HandleTypeDef *huart, uint32_t Addres
 275:Drivers/STM32L4xx_HAL_Driver/Src/stm32l4xx_hal_uart_ex.c **** {
 178              		.loc 1 275 0
 179              		.cfi_startproc
 180              		@ args = 0, pretend = 0, frame = 8
 181              		@ frame_needed = 1, uses_anonymous_args = 0
 182 0000 80B5     		push	{r7, lr}
 183              	.LCFI5:
 184              		.cfi_def_cfa_offset 8
ARM GAS  /tmp/cc1ehK8Z.s 			page 9


 185              		.cfi_offset 7, -8
 186              		.cfi_offset 14, -4
 187 0002 82B0     		sub	sp, sp, #8
 188              	.LCFI6:
 189              		.cfi_def_cfa_offset 16
 190 0004 00AF     		add	r7, sp, #0
 191              	.LCFI7:
 192              		.cfi_def_cfa_register 7
 193 0006 7860     		str	r0, [r7, #4]
 194 0008 3960     		str	r1, [r7]
 276:Drivers/STM32L4xx_HAL_Driver/Src/stm32l4xx_hal_uart_ex.c ****   /* Check the UART handle allocation */
 277:Drivers/STM32L4xx_HAL_Driver/Src/stm32l4xx_hal_uart_ex.c ****   if(huart == NULL)
 195              		.loc 1 277 0
 196 000a 7B68     		ldr	r3, [r7, #4]
 197 000c 002B     		cmp	r3, #0
 198 000e 01D1     		bne	.L8
 278:Drivers/STM32L4xx_HAL_Driver/Src/stm32l4xx_hal_uart_ex.c ****   {
 279:Drivers/STM32L4xx_HAL_Driver/Src/stm32l4xx_hal_uart_ex.c ****     return HAL_ERROR;
 199              		.loc 1 279 0
 200 0010 0123     		movs	r3, #1
 201 0012 21E0     		b	.L9
 202              	.L8:
 280:Drivers/STM32L4xx_HAL_Driver/Src/stm32l4xx_hal_uart_ex.c ****   }
 281:Drivers/STM32L4xx_HAL_Driver/Src/stm32l4xx_hal_uart_ex.c **** 
 282:Drivers/STM32L4xx_HAL_Driver/Src/stm32l4xx_hal_uart_ex.c ****   /* Check the address length parameter */
 283:Drivers/STM32L4xx_HAL_Driver/Src/stm32l4xx_hal_uart_ex.c ****   assert_param(IS_UART_ADDRESSLENGTH_DETECT(AddressLength));
 284:Drivers/STM32L4xx_HAL_Driver/Src/stm32l4xx_hal_uart_ex.c **** 
 285:Drivers/STM32L4xx_HAL_Driver/Src/stm32l4xx_hal_uart_ex.c ****   huart->gState = HAL_UART_STATE_BUSY;
 203              		.loc 1 285 0
 204 0014 7B68     		ldr	r3, [r7, #4]
 205 0016 2422     		movs	r2, #36
 206 0018 83F86920 		strb	r2, [r3, #105]
 286:Drivers/STM32L4xx_HAL_Driver/Src/stm32l4xx_hal_uart_ex.c **** 
 287:Drivers/STM32L4xx_HAL_Driver/Src/stm32l4xx_hal_uart_ex.c ****   /* Disable the Peripheral */
 288:Drivers/STM32L4xx_HAL_Driver/Src/stm32l4xx_hal_uart_ex.c ****   __HAL_UART_DISABLE(huart);
 207              		.loc 1 288 0
 208 001c 7B68     		ldr	r3, [r7, #4]
 209 001e 1B68     		ldr	r3, [r3]
 210 0020 7A68     		ldr	r2, [r7, #4]
 211 0022 1268     		ldr	r2, [r2]
 212 0024 1268     		ldr	r2, [r2]
 213 0026 22F00102 		bic	r2, r2, #1
 214 002a 1A60     		str	r2, [r3]
 289:Drivers/STM32L4xx_HAL_Driver/Src/stm32l4xx_hal_uart_ex.c **** 
 290:Drivers/STM32L4xx_HAL_Driver/Src/stm32l4xx_hal_uart_ex.c ****   /* Set the address length */
 291:Drivers/STM32L4xx_HAL_Driver/Src/stm32l4xx_hal_uart_ex.c ****   MODIFY_REG(huart->Instance->CR2, USART_CR2_ADDM7, AddressLength);
 215              		.loc 1 291 0
 216 002c 7B68     		ldr	r3, [r7, #4]
 217 002e 1B68     		ldr	r3, [r3]
 218 0030 7A68     		ldr	r2, [r7, #4]
 219 0032 1268     		ldr	r2, [r2]
 220 0034 5268     		ldr	r2, [r2, #4]
 221 0036 22F01001 		bic	r1, r2, #16
 222 003a 3A68     		ldr	r2, [r7]
 223 003c 0A43     		orrs	r2, r2, r1
 224 003e 5A60     		str	r2, [r3, #4]
 292:Drivers/STM32L4xx_HAL_Driver/Src/stm32l4xx_hal_uart_ex.c **** 
ARM GAS  /tmp/cc1ehK8Z.s 			page 10


 293:Drivers/STM32L4xx_HAL_Driver/Src/stm32l4xx_hal_uart_ex.c ****   /* Enable the Peripheral */
 294:Drivers/STM32L4xx_HAL_Driver/Src/stm32l4xx_hal_uart_ex.c ****   __HAL_UART_ENABLE(huart);
 225              		.loc 1 294 0
 226 0040 7B68     		ldr	r3, [r7, #4]
 227 0042 1B68     		ldr	r3, [r3]
 228 0044 7A68     		ldr	r2, [r7, #4]
 229 0046 1268     		ldr	r2, [r2]
 230 0048 1268     		ldr	r2, [r2]
 231 004a 42F00102 		orr	r2, r2, #1
 232 004e 1A60     		str	r2, [r3]
 295:Drivers/STM32L4xx_HAL_Driver/Src/stm32l4xx_hal_uart_ex.c **** 
 296:Drivers/STM32L4xx_HAL_Driver/Src/stm32l4xx_hal_uart_ex.c ****   /* TEACK and/or REACK to check before moving huart->gState to Ready */
 297:Drivers/STM32L4xx_HAL_Driver/Src/stm32l4xx_hal_uart_ex.c ****   return (UART_CheckIdleState(huart));
 233              		.loc 1 297 0
 234 0050 7868     		ldr	r0, [r7, #4]
 235 0052 FFF7FEFF 		bl	UART_CheckIdleState
 236 0056 0346     		mov	r3, r0
 237              	.L9:
 298:Drivers/STM32L4xx_HAL_Driver/Src/stm32l4xx_hal_uart_ex.c **** }
 238              		.loc 1 298 0
 239 0058 1846     		mov	r0, r3
 240 005a 0837     		adds	r7, r7, #8
 241              	.LCFI8:
 242              		.cfi_def_cfa_offset 8
 243 005c BD46     		mov	sp, r7
 244              	.LCFI9:
 245              		.cfi_def_cfa_register 13
 246              		@ sp needed
 247 005e 80BD     		pop	{r7, pc}
 248              		.cfi_endproc
 249              	.LFE127:
 251              		.section	.text.HAL_UARTEx_StopModeWakeUpSourceConfig,"ax",%progbits
 252              		.align	1
 253              		.global	HAL_UARTEx_StopModeWakeUpSourceConfig
 254              		.syntax unified
 255              		.thumb
 256              		.thumb_func
 257              		.fpu fpv4-sp-d16
 259              	HAL_UARTEx_StopModeWakeUpSourceConfig:
 260              	.LFB128:
 299:Drivers/STM32L4xx_HAL_Driver/Src/stm32l4xx_hal_uart_ex.c **** 
 300:Drivers/STM32L4xx_HAL_Driver/Src/stm32l4xx_hal_uart_ex.c **** 
 301:Drivers/STM32L4xx_HAL_Driver/Src/stm32l4xx_hal_uart_ex.c **** /**
 302:Drivers/STM32L4xx_HAL_Driver/Src/stm32l4xx_hal_uart_ex.c ****   * @brief Set Wakeup from Stop mode interrupt flag selection.
 303:Drivers/STM32L4xx_HAL_Driver/Src/stm32l4xx_hal_uart_ex.c ****   * @param huart: UART handle.
 304:Drivers/STM32L4xx_HAL_Driver/Src/stm32l4xx_hal_uart_ex.c ****   * @param WakeUpSelection: address match, Start Bit detection or RXNE bit status.
 305:Drivers/STM32L4xx_HAL_Driver/Src/stm32l4xx_hal_uart_ex.c ****   * This parameter can be one of the following values:
 306:Drivers/STM32L4xx_HAL_Driver/Src/stm32l4xx_hal_uart_ex.c ****   *      @arg @ref UART_WAKEUP_ON_ADDRESS
 307:Drivers/STM32L4xx_HAL_Driver/Src/stm32l4xx_hal_uart_ex.c ****   *      @arg @ref UART_WAKEUP_ON_STARTBIT
 308:Drivers/STM32L4xx_HAL_Driver/Src/stm32l4xx_hal_uart_ex.c ****   *      @arg @ref UART_WAKEUP_ON_READDATA_NONEMPTY
 309:Drivers/STM32L4xx_HAL_Driver/Src/stm32l4xx_hal_uart_ex.c ****   * @retval HAL status
 310:Drivers/STM32L4xx_HAL_Driver/Src/stm32l4xx_hal_uart_ex.c ****   */
 311:Drivers/STM32L4xx_HAL_Driver/Src/stm32l4xx_hal_uart_ex.c **** HAL_StatusTypeDef HAL_UARTEx_StopModeWakeUpSourceConfig(UART_HandleTypeDef *huart, UART_WakeUpTypeD
 312:Drivers/STM32L4xx_HAL_Driver/Src/stm32l4xx_hal_uart_ex.c **** {
 261              		.loc 1 312 0
 262              		.cfi_startproc
 263              		@ args = 0, pretend = 0, frame = 24
ARM GAS  /tmp/cc1ehK8Z.s 			page 11


 264              		@ frame_needed = 1, uses_anonymous_args = 0
 265 0000 80B5     		push	{r7, lr}
 266              	.LCFI10:
 267              		.cfi_def_cfa_offset 8
 268              		.cfi_offset 7, -8
 269              		.cfi_offset 14, -4
 270 0002 88B0     		sub	sp, sp, #32
 271              	.LCFI11:
 272              		.cfi_def_cfa_offset 40
 273 0004 02AF     		add	r7, sp, #8
 274              	.LCFI12:
 275              		.cfi_def_cfa 7, 32
 276 0006 F860     		str	r0, [r7, #12]
 277 0008 3B1D     		adds	r3, r7, #4
 278 000a 83E80600 		stm	r3, {r1, r2}
 313:Drivers/STM32L4xx_HAL_Driver/Src/stm32l4xx_hal_uart_ex.c ****   HAL_StatusTypeDef status = HAL_OK;
 279              		.loc 1 313 0
 280 000e 0023     		movs	r3, #0
 281 0010 FB75     		strb	r3, [r7, #23]
 314:Drivers/STM32L4xx_HAL_Driver/Src/stm32l4xx_hal_uart_ex.c ****   uint32_t tickstart = 0;
 282              		.loc 1 314 0
 283 0012 0023     		movs	r3, #0
 284 0014 3B61     		str	r3, [r7, #16]
 315:Drivers/STM32L4xx_HAL_Driver/Src/stm32l4xx_hal_uart_ex.c **** 
 316:Drivers/STM32L4xx_HAL_Driver/Src/stm32l4xx_hal_uart_ex.c ****   /* check the wake-up from stop mode UART instance */
 317:Drivers/STM32L4xx_HAL_Driver/Src/stm32l4xx_hal_uart_ex.c ****   assert_param(IS_UART_WAKEUP_FROMSTOP_INSTANCE(huart->Instance));
 318:Drivers/STM32L4xx_HAL_Driver/Src/stm32l4xx_hal_uart_ex.c ****   /* check the wake-up selection parameter */
 319:Drivers/STM32L4xx_HAL_Driver/Src/stm32l4xx_hal_uart_ex.c ****   assert_param(IS_UART_WAKEUP_SELECTION(WakeUpSelection.WakeUpEvent));
 320:Drivers/STM32L4xx_HAL_Driver/Src/stm32l4xx_hal_uart_ex.c **** 
 321:Drivers/STM32L4xx_HAL_Driver/Src/stm32l4xx_hal_uart_ex.c ****   /* Process Locked */
 322:Drivers/STM32L4xx_HAL_Driver/Src/stm32l4xx_hal_uart_ex.c ****   __HAL_LOCK(huart);
 285              		.loc 1 322 0
 286 0016 FB68     		ldr	r3, [r7, #12]
 287 0018 93F86830 		ldrb	r3, [r3, #104]	@ zero_extendqisi2
 288 001c 012B     		cmp	r3, #1
 289 001e 01D1     		bne	.L11
 290              		.loc 1 322 0 is_stmt 0 discriminator 1
 291 0020 0223     		movs	r3, #2
 292 0022 46E0     		b	.L12
 293              	.L11:
 294              		.loc 1 322 0 discriminator 2
 295 0024 FB68     		ldr	r3, [r7, #12]
 296 0026 0122     		movs	r2, #1
 297 0028 83F86820 		strb	r2, [r3, #104]
 323:Drivers/STM32L4xx_HAL_Driver/Src/stm32l4xx_hal_uart_ex.c **** 
 324:Drivers/STM32L4xx_HAL_Driver/Src/stm32l4xx_hal_uart_ex.c ****   huart->gState = HAL_UART_STATE_BUSY;
 298              		.loc 1 324 0 is_stmt 1 discriminator 2
 299 002c FB68     		ldr	r3, [r7, #12]
 300 002e 2422     		movs	r2, #36
 301 0030 83F86920 		strb	r2, [r3, #105]
 325:Drivers/STM32L4xx_HAL_Driver/Src/stm32l4xx_hal_uart_ex.c **** 
 326:Drivers/STM32L4xx_HAL_Driver/Src/stm32l4xx_hal_uart_ex.c ****   /* Disable the Peripheral */
 327:Drivers/STM32L4xx_HAL_Driver/Src/stm32l4xx_hal_uart_ex.c ****   __HAL_UART_DISABLE(huart);
 302              		.loc 1 327 0 discriminator 2
 303 0034 FB68     		ldr	r3, [r7, #12]
 304 0036 1B68     		ldr	r3, [r3]
 305 0038 FA68     		ldr	r2, [r7, #12]
ARM GAS  /tmp/cc1ehK8Z.s 			page 12


 306 003a 1268     		ldr	r2, [r2]
 307 003c 1268     		ldr	r2, [r2]
 308 003e 22F00102 		bic	r2, r2, #1
 309 0042 1A60     		str	r2, [r3]
 328:Drivers/STM32L4xx_HAL_Driver/Src/stm32l4xx_hal_uart_ex.c **** 
 329:Drivers/STM32L4xx_HAL_Driver/Src/stm32l4xx_hal_uart_ex.c ****   /* Set the wake-up selection scheme */
 330:Drivers/STM32L4xx_HAL_Driver/Src/stm32l4xx_hal_uart_ex.c ****   MODIFY_REG(huart->Instance->CR3, USART_CR3_WUS, WakeUpSelection.WakeUpEvent);
 310              		.loc 1 330 0 discriminator 2
 311 0044 FB68     		ldr	r3, [r7, #12]
 312 0046 1B68     		ldr	r3, [r3]
 313 0048 FA68     		ldr	r2, [r7, #12]
 314 004a 1268     		ldr	r2, [r2]
 315 004c 9268     		ldr	r2, [r2, #8]
 316 004e 22F44011 		bic	r1, r2, #3145728
 317 0052 7A68     		ldr	r2, [r7, #4]
 318 0054 0A43     		orrs	r2, r2, r1
 319 0056 9A60     		str	r2, [r3, #8]
 331:Drivers/STM32L4xx_HAL_Driver/Src/stm32l4xx_hal_uart_ex.c **** 
 332:Drivers/STM32L4xx_HAL_Driver/Src/stm32l4xx_hal_uart_ex.c ****   if (WakeUpSelection.WakeUpEvent == UART_WAKEUP_ON_ADDRESS)
 320              		.loc 1 332 0 discriminator 2
 321 0058 7B68     		ldr	r3, [r7, #4]
 322 005a 002B     		cmp	r3, #0
 323 005c 05D1     		bne	.L13
 333:Drivers/STM32L4xx_HAL_Driver/Src/stm32l4xx_hal_uart_ex.c ****   {
 334:Drivers/STM32L4xx_HAL_Driver/Src/stm32l4xx_hal_uart_ex.c ****     UARTEx_Wakeup_AddressConfig(huart, WakeUpSelection);
 324              		.loc 1 334 0
 325 005e 3B1D     		adds	r3, r7, #4
 326 0060 93E80600 		ldm	r3, {r1, r2}
 327 0064 F868     		ldr	r0, [r7, #12]
 328 0066 FFF7FEFF 		bl	UARTEx_Wakeup_AddressConfig
 329              	.L13:
 335:Drivers/STM32L4xx_HAL_Driver/Src/stm32l4xx_hal_uart_ex.c ****   }
 336:Drivers/STM32L4xx_HAL_Driver/Src/stm32l4xx_hal_uart_ex.c **** 
 337:Drivers/STM32L4xx_HAL_Driver/Src/stm32l4xx_hal_uart_ex.c ****   /* Enable the Peripheral */
 338:Drivers/STM32L4xx_HAL_Driver/Src/stm32l4xx_hal_uart_ex.c ****   __HAL_UART_ENABLE(huart);
 330              		.loc 1 338 0
 331 006a FB68     		ldr	r3, [r7, #12]
 332 006c 1B68     		ldr	r3, [r3]
 333 006e FA68     		ldr	r2, [r7, #12]
 334 0070 1268     		ldr	r2, [r2]
 335 0072 1268     		ldr	r2, [r2]
 336 0074 42F00102 		orr	r2, r2, #1
 337 0078 1A60     		str	r2, [r3]
 339:Drivers/STM32L4xx_HAL_Driver/Src/stm32l4xx_hal_uart_ex.c **** 
 340:Drivers/STM32L4xx_HAL_Driver/Src/stm32l4xx_hal_uart_ex.c ****   /* Init tickstart for timeout managment*/
 341:Drivers/STM32L4xx_HAL_Driver/Src/stm32l4xx_hal_uart_ex.c ****   tickstart = HAL_GetTick();
 338              		.loc 1 341 0
 339 007a FFF7FEFF 		bl	HAL_GetTick
 340 007e 3861     		str	r0, [r7, #16]
 342:Drivers/STM32L4xx_HAL_Driver/Src/stm32l4xx_hal_uart_ex.c **** 
 343:Drivers/STM32L4xx_HAL_Driver/Src/stm32l4xx_hal_uart_ex.c ****   /* Wait until REACK flag is set */
 344:Drivers/STM32L4xx_HAL_Driver/Src/stm32l4xx_hal_uart_ex.c ****   if(UART_WaitOnFlagUntilTimeout(huart, USART_ISR_REACK, RESET, tickstart, HAL_UART_TIMEOUT_VALUE) 
 341              		.loc 1 344 0
 342 0080 6FF07E43 		mvn	r3, #-33554432
 343 0084 0093     		str	r3, [sp]
 344 0086 3B69     		ldr	r3, [r7, #16]
 345 0088 0022     		movs	r2, #0
ARM GAS  /tmp/cc1ehK8Z.s 			page 13


 346 008a 4FF48001 		mov	r1, #4194304
 347 008e F868     		ldr	r0, [r7, #12]
 348 0090 FFF7FEFF 		bl	UART_WaitOnFlagUntilTimeout
 349 0094 0346     		mov	r3, r0
 350 0096 002B     		cmp	r3, #0
 351 0098 02D0     		beq	.L14
 345:Drivers/STM32L4xx_HAL_Driver/Src/stm32l4xx_hal_uart_ex.c ****   {
 346:Drivers/STM32L4xx_HAL_Driver/Src/stm32l4xx_hal_uart_ex.c ****     status = HAL_TIMEOUT;
 352              		.loc 1 346 0
 353 009a 0323     		movs	r3, #3
 354 009c FB75     		strb	r3, [r7, #23]
 355 009e 03E0     		b	.L15
 356              	.L14:
 347:Drivers/STM32L4xx_HAL_Driver/Src/stm32l4xx_hal_uart_ex.c ****   }
 348:Drivers/STM32L4xx_HAL_Driver/Src/stm32l4xx_hal_uart_ex.c ****   else
 349:Drivers/STM32L4xx_HAL_Driver/Src/stm32l4xx_hal_uart_ex.c ****   {
 350:Drivers/STM32L4xx_HAL_Driver/Src/stm32l4xx_hal_uart_ex.c ****     /* Initialize the UART State */
 351:Drivers/STM32L4xx_HAL_Driver/Src/stm32l4xx_hal_uart_ex.c ****     huart->gState = HAL_UART_STATE_READY;
 357              		.loc 1 351 0
 358 00a0 FB68     		ldr	r3, [r7, #12]
 359 00a2 2022     		movs	r2, #32
 360 00a4 83F86920 		strb	r2, [r3, #105]
 361              	.L15:
 352:Drivers/STM32L4xx_HAL_Driver/Src/stm32l4xx_hal_uart_ex.c ****   }
 353:Drivers/STM32L4xx_HAL_Driver/Src/stm32l4xx_hal_uart_ex.c **** 
 354:Drivers/STM32L4xx_HAL_Driver/Src/stm32l4xx_hal_uart_ex.c ****   /* Process Unlocked */
 355:Drivers/STM32L4xx_HAL_Driver/Src/stm32l4xx_hal_uart_ex.c ****   __HAL_UNLOCK(huart);
 362              		.loc 1 355 0
 363 00a8 FB68     		ldr	r3, [r7, #12]
 364 00aa 0022     		movs	r2, #0
 365 00ac 83F86820 		strb	r2, [r3, #104]
 356:Drivers/STM32L4xx_HAL_Driver/Src/stm32l4xx_hal_uart_ex.c **** 
 357:Drivers/STM32L4xx_HAL_Driver/Src/stm32l4xx_hal_uart_ex.c ****   return status;
 366              		.loc 1 357 0
 367 00b0 FB7D     		ldrb	r3, [r7, #23]	@ zero_extendqisi2
 368              	.L12:
 358:Drivers/STM32L4xx_HAL_Driver/Src/stm32l4xx_hal_uart_ex.c **** }
 369              		.loc 1 358 0
 370 00b2 1846     		mov	r0, r3
 371 00b4 1837     		adds	r7, r7, #24
 372              	.LCFI13:
 373              		.cfi_def_cfa_offset 8
 374 00b6 BD46     		mov	sp, r7
 375              	.LCFI14:
 376              		.cfi_def_cfa_register 13
 377              		@ sp needed
 378 00b8 80BD     		pop	{r7, pc}
 379              		.cfi_endproc
 380              	.LFE128:
 382              		.section	.text.HAL_UARTEx_EnableStopMode,"ax",%progbits
 383              		.align	1
 384              		.global	HAL_UARTEx_EnableStopMode
 385              		.syntax unified
 386              		.thumb
 387              		.thumb_func
 388              		.fpu fpv4-sp-d16
 390              	HAL_UARTEx_EnableStopMode:
ARM GAS  /tmp/cc1ehK8Z.s 			page 14


 391              	.LFB129:
 359:Drivers/STM32L4xx_HAL_Driver/Src/stm32l4xx_hal_uart_ex.c **** 
 360:Drivers/STM32L4xx_HAL_Driver/Src/stm32l4xx_hal_uart_ex.c **** 
 361:Drivers/STM32L4xx_HAL_Driver/Src/stm32l4xx_hal_uart_ex.c **** /**
 362:Drivers/STM32L4xx_HAL_Driver/Src/stm32l4xx_hal_uart_ex.c ****   * @brief Enable UART Stop Mode.
 363:Drivers/STM32L4xx_HAL_Driver/Src/stm32l4xx_hal_uart_ex.c ****   * @note  The UART is able to wake up the MCU from Stop 1 mode as long as UART clock is HSI or LSE
 364:Drivers/STM32L4xx_HAL_Driver/Src/stm32l4xx_hal_uart_ex.c ****   * @param huart: UART handle.
 365:Drivers/STM32L4xx_HAL_Driver/Src/stm32l4xx_hal_uart_ex.c ****   * @retval HAL status
 366:Drivers/STM32L4xx_HAL_Driver/Src/stm32l4xx_hal_uart_ex.c ****   */
 367:Drivers/STM32L4xx_HAL_Driver/Src/stm32l4xx_hal_uart_ex.c **** HAL_StatusTypeDef HAL_UARTEx_EnableStopMode(UART_HandleTypeDef *huart)
 368:Drivers/STM32L4xx_HAL_Driver/Src/stm32l4xx_hal_uart_ex.c **** {
 392              		.loc 1 368 0
 393              		.cfi_startproc
 394              		@ args = 0, pretend = 0, frame = 8
 395              		@ frame_needed = 1, uses_anonymous_args = 0
 396              		@ link register save eliminated.
 397 0000 80B4     		push	{r7}
 398              	.LCFI15:
 399              		.cfi_def_cfa_offset 4
 400              		.cfi_offset 7, -4
 401 0002 83B0     		sub	sp, sp, #12
 402              	.LCFI16:
 403              		.cfi_def_cfa_offset 16
 404 0004 00AF     		add	r7, sp, #0
 405              	.LCFI17:
 406              		.cfi_def_cfa_register 7
 407 0006 7860     		str	r0, [r7, #4]
 369:Drivers/STM32L4xx_HAL_Driver/Src/stm32l4xx_hal_uart_ex.c ****   /* Process Locked */
 370:Drivers/STM32L4xx_HAL_Driver/Src/stm32l4xx_hal_uart_ex.c ****   __HAL_LOCK(huart);
 408              		.loc 1 370 0
 409 0008 7B68     		ldr	r3, [r7, #4]
 410 000a 93F86830 		ldrb	r3, [r3, #104]	@ zero_extendqisi2
 411 000e 012B     		cmp	r3, #1
 412 0010 01D1     		bne	.L17
 413              		.loc 1 370 0 is_stmt 0 discriminator 1
 414 0012 0223     		movs	r3, #2
 415 0014 18E0     		b	.L18
 416              	.L17:
 417              		.loc 1 370 0 discriminator 2
 418 0016 7B68     		ldr	r3, [r7, #4]
 419 0018 0122     		movs	r2, #1
 420 001a 83F86820 		strb	r2, [r3, #104]
 371:Drivers/STM32L4xx_HAL_Driver/Src/stm32l4xx_hal_uart_ex.c **** 
 372:Drivers/STM32L4xx_HAL_Driver/Src/stm32l4xx_hal_uart_ex.c ****   huart->gState = HAL_UART_STATE_BUSY;
 421              		.loc 1 372 0 is_stmt 1 discriminator 2
 422 001e 7B68     		ldr	r3, [r7, #4]
 423 0020 2422     		movs	r2, #36
 424 0022 83F86920 		strb	r2, [r3, #105]
 373:Drivers/STM32L4xx_HAL_Driver/Src/stm32l4xx_hal_uart_ex.c **** 
 374:Drivers/STM32L4xx_HAL_Driver/Src/stm32l4xx_hal_uart_ex.c ****   /* Set UESM bit */
 375:Drivers/STM32L4xx_HAL_Driver/Src/stm32l4xx_hal_uart_ex.c ****   SET_BIT(huart->Instance->CR1, USART_CR1_UESM);
 425              		.loc 1 375 0 discriminator 2
 426 0026 7B68     		ldr	r3, [r7, #4]
 427 0028 1B68     		ldr	r3, [r3]
 428 002a 7A68     		ldr	r2, [r7, #4]
 429 002c 1268     		ldr	r2, [r2]
 430 002e 1268     		ldr	r2, [r2]
ARM GAS  /tmp/cc1ehK8Z.s 			page 15


 431 0030 42F00202 		orr	r2, r2, #2
 432 0034 1A60     		str	r2, [r3]
 376:Drivers/STM32L4xx_HAL_Driver/Src/stm32l4xx_hal_uart_ex.c **** 
 377:Drivers/STM32L4xx_HAL_Driver/Src/stm32l4xx_hal_uart_ex.c ****   huart->gState = HAL_UART_STATE_READY;
 433              		.loc 1 377 0 discriminator 2
 434 0036 7B68     		ldr	r3, [r7, #4]
 435 0038 2022     		movs	r2, #32
 436 003a 83F86920 		strb	r2, [r3, #105]
 378:Drivers/STM32L4xx_HAL_Driver/Src/stm32l4xx_hal_uart_ex.c **** 
 379:Drivers/STM32L4xx_HAL_Driver/Src/stm32l4xx_hal_uart_ex.c ****   /* Process Unlocked */
 380:Drivers/STM32L4xx_HAL_Driver/Src/stm32l4xx_hal_uart_ex.c ****   __HAL_UNLOCK(huart);
 437              		.loc 1 380 0 discriminator 2
 438 003e 7B68     		ldr	r3, [r7, #4]
 439 0040 0022     		movs	r2, #0
 440 0042 83F86820 		strb	r2, [r3, #104]
 381:Drivers/STM32L4xx_HAL_Driver/Src/stm32l4xx_hal_uart_ex.c **** 
 382:Drivers/STM32L4xx_HAL_Driver/Src/stm32l4xx_hal_uart_ex.c ****   return HAL_OK;
 441              		.loc 1 382 0 discriminator 2
 442 0046 0023     		movs	r3, #0
 443              	.L18:
 383:Drivers/STM32L4xx_HAL_Driver/Src/stm32l4xx_hal_uart_ex.c **** }
 444              		.loc 1 383 0
 445 0048 1846     		mov	r0, r3
 446 004a 0C37     		adds	r7, r7, #12
 447              	.LCFI18:
 448              		.cfi_def_cfa_offset 4
 449 004c BD46     		mov	sp, r7
 450              	.LCFI19:
 451              		.cfi_def_cfa_register 13
 452              		@ sp needed
 453 004e 5DF8047B 		ldr	r7, [sp], #4
 454              	.LCFI20:
 455              		.cfi_restore 7
 456              		.cfi_def_cfa_offset 0
 457 0052 7047     		bx	lr
 458              		.cfi_endproc
 459              	.LFE129:
 461              		.section	.text.HAL_UARTEx_DisableStopMode,"ax",%progbits
 462              		.align	1
 463              		.global	HAL_UARTEx_DisableStopMode
 464              		.syntax unified
 465              		.thumb
 466              		.thumb_func
 467              		.fpu fpv4-sp-d16
 469              	HAL_UARTEx_DisableStopMode:
 470              	.LFB130:
 384:Drivers/STM32L4xx_HAL_Driver/Src/stm32l4xx_hal_uart_ex.c **** 
 385:Drivers/STM32L4xx_HAL_Driver/Src/stm32l4xx_hal_uart_ex.c **** /**
 386:Drivers/STM32L4xx_HAL_Driver/Src/stm32l4xx_hal_uart_ex.c ****   * @brief Disable UART Stop Mode.
 387:Drivers/STM32L4xx_HAL_Driver/Src/stm32l4xx_hal_uart_ex.c ****   * @param huart: UART handle.
 388:Drivers/STM32L4xx_HAL_Driver/Src/stm32l4xx_hal_uart_ex.c ****   * @retval HAL status
 389:Drivers/STM32L4xx_HAL_Driver/Src/stm32l4xx_hal_uart_ex.c ****   */
 390:Drivers/STM32L4xx_HAL_Driver/Src/stm32l4xx_hal_uart_ex.c **** HAL_StatusTypeDef HAL_UARTEx_DisableStopMode(UART_HandleTypeDef *huart)
 391:Drivers/STM32L4xx_HAL_Driver/Src/stm32l4xx_hal_uart_ex.c **** {
 471              		.loc 1 391 0
 472              		.cfi_startproc
 473              		@ args = 0, pretend = 0, frame = 8
ARM GAS  /tmp/cc1ehK8Z.s 			page 16


 474              		@ frame_needed = 1, uses_anonymous_args = 0
 475              		@ link register save eliminated.
 476 0000 80B4     		push	{r7}
 477              	.LCFI21:
 478              		.cfi_def_cfa_offset 4
 479              		.cfi_offset 7, -4
 480 0002 83B0     		sub	sp, sp, #12
 481              	.LCFI22:
 482              		.cfi_def_cfa_offset 16
 483 0004 00AF     		add	r7, sp, #0
 484              	.LCFI23:
 485              		.cfi_def_cfa_register 7
 486 0006 7860     		str	r0, [r7, #4]
 392:Drivers/STM32L4xx_HAL_Driver/Src/stm32l4xx_hal_uart_ex.c ****   /* Process Locked */
 393:Drivers/STM32L4xx_HAL_Driver/Src/stm32l4xx_hal_uart_ex.c ****   __HAL_LOCK(huart);
 487              		.loc 1 393 0
 488 0008 7B68     		ldr	r3, [r7, #4]
 489 000a 93F86830 		ldrb	r3, [r3, #104]	@ zero_extendqisi2
 490 000e 012B     		cmp	r3, #1
 491 0010 01D1     		bne	.L20
 492              		.loc 1 393 0 is_stmt 0 discriminator 1
 493 0012 0223     		movs	r3, #2
 494 0014 18E0     		b	.L21
 495              	.L20:
 496              		.loc 1 393 0 discriminator 2
 497 0016 7B68     		ldr	r3, [r7, #4]
 498 0018 0122     		movs	r2, #1
 499 001a 83F86820 		strb	r2, [r3, #104]
 394:Drivers/STM32L4xx_HAL_Driver/Src/stm32l4xx_hal_uart_ex.c **** 
 395:Drivers/STM32L4xx_HAL_Driver/Src/stm32l4xx_hal_uart_ex.c ****   huart->gState = HAL_UART_STATE_BUSY;
 500              		.loc 1 395 0 is_stmt 1 discriminator 2
 501 001e 7B68     		ldr	r3, [r7, #4]
 502 0020 2422     		movs	r2, #36
 503 0022 83F86920 		strb	r2, [r3, #105]
 396:Drivers/STM32L4xx_HAL_Driver/Src/stm32l4xx_hal_uart_ex.c **** 
 397:Drivers/STM32L4xx_HAL_Driver/Src/stm32l4xx_hal_uart_ex.c ****   /* Clear UESM bit */
 398:Drivers/STM32L4xx_HAL_Driver/Src/stm32l4xx_hal_uart_ex.c ****   CLEAR_BIT(huart->Instance->CR1, USART_CR1_UESM);
 504              		.loc 1 398 0 discriminator 2
 505 0026 7B68     		ldr	r3, [r7, #4]
 506 0028 1B68     		ldr	r3, [r3]
 507 002a 7A68     		ldr	r2, [r7, #4]
 508 002c 1268     		ldr	r2, [r2]
 509 002e 1268     		ldr	r2, [r2]
 510 0030 22F00202 		bic	r2, r2, #2
 511 0034 1A60     		str	r2, [r3]
 399:Drivers/STM32L4xx_HAL_Driver/Src/stm32l4xx_hal_uart_ex.c **** 
 400:Drivers/STM32L4xx_HAL_Driver/Src/stm32l4xx_hal_uart_ex.c ****   huart->gState = HAL_UART_STATE_READY;
 512              		.loc 1 400 0 discriminator 2
 513 0036 7B68     		ldr	r3, [r7, #4]
 514 0038 2022     		movs	r2, #32
 515 003a 83F86920 		strb	r2, [r3, #105]
 401:Drivers/STM32L4xx_HAL_Driver/Src/stm32l4xx_hal_uart_ex.c **** 
 402:Drivers/STM32L4xx_HAL_Driver/Src/stm32l4xx_hal_uart_ex.c ****   /* Process Unlocked */
 403:Drivers/STM32L4xx_HAL_Driver/Src/stm32l4xx_hal_uart_ex.c ****   __HAL_UNLOCK(huart);
 516              		.loc 1 403 0 discriminator 2
 517 003e 7B68     		ldr	r3, [r7, #4]
 518 0040 0022     		movs	r2, #0
ARM GAS  /tmp/cc1ehK8Z.s 			page 17


 519 0042 83F86820 		strb	r2, [r3, #104]
 404:Drivers/STM32L4xx_HAL_Driver/Src/stm32l4xx_hal_uart_ex.c **** 
 405:Drivers/STM32L4xx_HAL_Driver/Src/stm32l4xx_hal_uart_ex.c ****   return HAL_OK;
 520              		.loc 1 405 0 discriminator 2
 521 0046 0023     		movs	r3, #0
 522              	.L21:
 406:Drivers/STM32L4xx_HAL_Driver/Src/stm32l4xx_hal_uart_ex.c **** }
 523              		.loc 1 406 0
 524 0048 1846     		mov	r0, r3
 525 004a 0C37     		adds	r7, r7, #12
 526              	.LCFI24:
 527              		.cfi_def_cfa_offset 4
 528 004c BD46     		mov	sp, r7
 529              	.LCFI25:
 530              		.cfi_def_cfa_register 13
 531              		@ sp needed
 532 004e 5DF8047B 		ldr	r7, [sp], #4
 533              	.LCFI26:
 534              		.cfi_restore 7
 535              		.cfi_def_cfa_offset 0
 536 0052 7047     		bx	lr
 537              		.cfi_endproc
 538              	.LFE130:
 540              		.section	.text.HAL_UARTEx_WakeupCallback,"ax",%progbits
 541              		.align	1
 542              		.weak	HAL_UARTEx_WakeupCallback
 543              		.syntax unified
 544              		.thumb
 545              		.thumb_func
 546              		.fpu fpv4-sp-d16
 548              	HAL_UARTEx_WakeupCallback:
 549              	.LFB131:
 407:Drivers/STM32L4xx_HAL_Driver/Src/stm32l4xx_hal_uart_ex.c **** 
 408:Drivers/STM32L4xx_HAL_Driver/Src/stm32l4xx_hal_uart_ex.c **** /**
 409:Drivers/STM32L4xx_HAL_Driver/Src/stm32l4xx_hal_uart_ex.c ****   * @brief UART wakeup from Stop mode callback.
 410:Drivers/STM32L4xx_HAL_Driver/Src/stm32l4xx_hal_uart_ex.c ****   * @param huart: UART handle.
 411:Drivers/STM32L4xx_HAL_Driver/Src/stm32l4xx_hal_uart_ex.c ****   * @retval None
 412:Drivers/STM32L4xx_HAL_Driver/Src/stm32l4xx_hal_uart_ex.c ****   */
 413:Drivers/STM32L4xx_HAL_Driver/Src/stm32l4xx_hal_uart_ex.c **** __weak void HAL_UARTEx_WakeupCallback(UART_HandleTypeDef *huart)
 414:Drivers/STM32L4xx_HAL_Driver/Src/stm32l4xx_hal_uart_ex.c **** {
 550              		.loc 1 414 0
 551              		.cfi_startproc
 552              		@ args = 0, pretend = 0, frame = 8
 553              		@ frame_needed = 1, uses_anonymous_args = 0
 554              		@ link register save eliminated.
 555 0000 80B4     		push	{r7}
 556              	.LCFI27:
 557              		.cfi_def_cfa_offset 4
 558              		.cfi_offset 7, -4
 559 0002 83B0     		sub	sp, sp, #12
 560              	.LCFI28:
 561              		.cfi_def_cfa_offset 16
 562 0004 00AF     		add	r7, sp, #0
 563              	.LCFI29:
 564              		.cfi_def_cfa_register 7
 565 0006 7860     		str	r0, [r7, #4]
 415:Drivers/STM32L4xx_HAL_Driver/Src/stm32l4xx_hal_uart_ex.c ****   /* Prevent unused argument(s) compilation warning */
ARM GAS  /tmp/cc1ehK8Z.s 			page 18


 416:Drivers/STM32L4xx_HAL_Driver/Src/stm32l4xx_hal_uart_ex.c ****   UNUSED(huart);
 417:Drivers/STM32L4xx_HAL_Driver/Src/stm32l4xx_hal_uart_ex.c **** 
 418:Drivers/STM32L4xx_HAL_Driver/Src/stm32l4xx_hal_uart_ex.c ****   /* NOTE : This function should not be modified, when the callback is needed,
 419:Drivers/STM32L4xx_HAL_Driver/Src/stm32l4xx_hal_uart_ex.c ****             the HAL_UARTEx_WakeupCallback can be implemented in the user file.
 420:Drivers/STM32L4xx_HAL_Driver/Src/stm32l4xx_hal_uart_ex.c ****    */
 421:Drivers/STM32L4xx_HAL_Driver/Src/stm32l4xx_hal_uart_ex.c **** }
 566              		.loc 1 421 0
 567 0008 00BF     		nop
 568 000a 0C37     		adds	r7, r7, #12
 569              	.LCFI30:
 570              		.cfi_def_cfa_offset 4
 571 000c BD46     		mov	sp, r7
 572              	.LCFI31:
 573              		.cfi_def_cfa_register 13
 574              		@ sp needed
 575 000e 5DF8047B 		ldr	r7, [sp], #4
 576              	.LCFI32:
 577              		.cfi_restore 7
 578              		.cfi_def_cfa_offset 0
 579 0012 7047     		bx	lr
 580              		.cfi_endproc
 581              	.LFE131:
 583              		.section	.text.UARTEx_Wakeup_AddressConfig,"ax",%progbits
 584              		.align	1
 585              		.syntax unified
 586              		.thumb
 587              		.thumb_func
 588              		.fpu fpv4-sp-d16
 590              	UARTEx_Wakeup_AddressConfig:
 591              	.LFB132:
 422:Drivers/STM32L4xx_HAL_Driver/Src/stm32l4xx_hal_uart_ex.c **** 
 423:Drivers/STM32L4xx_HAL_Driver/Src/stm32l4xx_hal_uart_ex.c **** /**
 424:Drivers/STM32L4xx_HAL_Driver/Src/stm32l4xx_hal_uart_ex.c ****   * @}
 425:Drivers/STM32L4xx_HAL_Driver/Src/stm32l4xx_hal_uart_ex.c ****   */
 426:Drivers/STM32L4xx_HAL_Driver/Src/stm32l4xx_hal_uart_ex.c **** 
 427:Drivers/STM32L4xx_HAL_Driver/Src/stm32l4xx_hal_uart_ex.c **** /**
 428:Drivers/STM32L4xx_HAL_Driver/Src/stm32l4xx_hal_uart_ex.c ****   * @}
 429:Drivers/STM32L4xx_HAL_Driver/Src/stm32l4xx_hal_uart_ex.c ****   */
 430:Drivers/STM32L4xx_HAL_Driver/Src/stm32l4xx_hal_uart_ex.c **** 
 431:Drivers/STM32L4xx_HAL_Driver/Src/stm32l4xx_hal_uart_ex.c **** /** @addtogroup UARTEx_Private_Functions
 432:Drivers/STM32L4xx_HAL_Driver/Src/stm32l4xx_hal_uart_ex.c ****   * @{
 433:Drivers/STM32L4xx_HAL_Driver/Src/stm32l4xx_hal_uart_ex.c ****   */
 434:Drivers/STM32L4xx_HAL_Driver/Src/stm32l4xx_hal_uart_ex.c **** 
 435:Drivers/STM32L4xx_HAL_Driver/Src/stm32l4xx_hal_uart_ex.c **** /**
 436:Drivers/STM32L4xx_HAL_Driver/Src/stm32l4xx_hal_uart_ex.c ****   * @brief Initialize the UART wake-up from stop mode parameters when triggered by address detectio
 437:Drivers/STM32L4xx_HAL_Driver/Src/stm32l4xx_hal_uart_ex.c ****   * @param huart: UART handle.
 438:Drivers/STM32L4xx_HAL_Driver/Src/stm32l4xx_hal_uart_ex.c ****   * @param WakeUpSelection: UART wake up from stop mode parameters.
 439:Drivers/STM32L4xx_HAL_Driver/Src/stm32l4xx_hal_uart_ex.c ****   * @retval None
 440:Drivers/STM32L4xx_HAL_Driver/Src/stm32l4xx_hal_uart_ex.c ****   */
 441:Drivers/STM32L4xx_HAL_Driver/Src/stm32l4xx_hal_uart_ex.c **** static void UARTEx_Wakeup_AddressConfig(UART_HandleTypeDef *huart, UART_WakeUpTypeDef WakeUpSelecti
 442:Drivers/STM32L4xx_HAL_Driver/Src/stm32l4xx_hal_uart_ex.c **** {
 592              		.loc 1 442 0
 593              		.cfi_startproc
 594              		@ args = 0, pretend = 0, frame = 16
 595              		@ frame_needed = 1, uses_anonymous_args = 0
 596              		@ link register save eliminated.
 597 0000 80B4     		push	{r7}
ARM GAS  /tmp/cc1ehK8Z.s 			page 19


 598              	.LCFI33:
 599              		.cfi_def_cfa_offset 4
 600              		.cfi_offset 7, -4
 601 0002 85B0     		sub	sp, sp, #20
 602              	.LCFI34:
 603              		.cfi_def_cfa_offset 24
 604 0004 00AF     		add	r7, sp, #0
 605              	.LCFI35:
 606              		.cfi_def_cfa_register 7
 607 0006 F860     		str	r0, [r7, #12]
 608 0008 3B1D     		adds	r3, r7, #4
 609 000a 83E80600 		stm	r3, {r1, r2}
 443:Drivers/STM32L4xx_HAL_Driver/Src/stm32l4xx_hal_uart_ex.c ****   assert_param(IS_UART_ADDRESSLENGTH_DETECT(WakeUpSelection.AddressLength));
 444:Drivers/STM32L4xx_HAL_Driver/Src/stm32l4xx_hal_uart_ex.c **** 
 445:Drivers/STM32L4xx_HAL_Driver/Src/stm32l4xx_hal_uart_ex.c ****   /* Set the USART address length */
 446:Drivers/STM32L4xx_HAL_Driver/Src/stm32l4xx_hal_uart_ex.c ****   MODIFY_REG(huart->Instance->CR2, USART_CR2_ADDM7, WakeUpSelection.AddressLength);
 610              		.loc 1 446 0
 611 000e FB68     		ldr	r3, [r7, #12]
 612 0010 1B68     		ldr	r3, [r3]
 613 0012 FA68     		ldr	r2, [r7, #12]
 614 0014 1268     		ldr	r2, [r2]
 615 0016 5268     		ldr	r2, [r2, #4]
 616 0018 22F01002 		bic	r2, r2, #16
 617 001c 3989     		ldrh	r1, [r7, #8]
 618 001e 0A43     		orrs	r2, r2, r1
 619 0020 5A60     		str	r2, [r3, #4]
 447:Drivers/STM32L4xx_HAL_Driver/Src/stm32l4xx_hal_uart_ex.c **** 
 448:Drivers/STM32L4xx_HAL_Driver/Src/stm32l4xx_hal_uart_ex.c ****   /* Set the USART address node */
 449:Drivers/STM32L4xx_HAL_Driver/Src/stm32l4xx_hal_uart_ex.c ****   MODIFY_REG(huart->Instance->CR2, USART_CR2_ADD, ((uint32_t)WakeUpSelection.Address << UART_CR2_AD
 620              		.loc 1 449 0
 621 0022 FB68     		ldr	r3, [r7, #12]
 622 0024 1B68     		ldr	r3, [r3]
 623 0026 FA68     		ldr	r2, [r7, #12]
 624 0028 1268     		ldr	r2, [r2]
 625 002a 5268     		ldr	r2, [r2, #4]
 626 002c 22F07F41 		bic	r1, r2, #-16777216
 627 0030 BA7A     		ldrb	r2, [r7, #10]	@ zero_extendqisi2
 628 0032 1206     		lsls	r2, r2, #24
 629 0034 0A43     		orrs	r2, r2, r1
 630 0036 5A60     		str	r2, [r3, #4]
 450:Drivers/STM32L4xx_HAL_Driver/Src/stm32l4xx_hal_uart_ex.c **** }
 631              		.loc 1 450 0
 632 0038 00BF     		nop
 633 003a 1437     		adds	r7, r7, #20
 634              	.LCFI36:
 635              		.cfi_def_cfa_offset 4
 636 003c BD46     		mov	sp, r7
 637              	.LCFI37:
 638              		.cfi_def_cfa_register 13
 639              		@ sp needed
 640 003e 5DF8047B 		ldr	r7, [sp], #4
 641              	.LCFI38:
 642              		.cfi_restore 7
 643              		.cfi_def_cfa_offset 0
 644 0042 7047     		bx	lr
 645              		.cfi_endproc
 646              	.LFE132:
ARM GAS  /tmp/cc1ehK8Z.s 			page 20


 648              		.text
 649              	.Letext0:
 650              		.file 2 "/usr/arm-none-eabi/include/machine/_default_types.h"
 651              		.file 3 "/usr/arm-none-eabi/include/sys/_stdint.h"
 652              		.file 4 "Drivers/CMSIS/Include/core_cm4.h"
 653              		.file 5 "Drivers/CMSIS/Device/ST/STM32L4xx/Include/system_stm32l4xx.h"
 654              		.file 6 "Drivers/CMSIS/Device/ST/STM32L4xx/Include/stm32l476xx.h"
 655              		.file 7 "/usr/arm-none-eabi/include/sys/lock.h"
 656              		.file 8 "/usr/arm-none-eabi/include/sys/_types.h"
 657              		.file 9 "/usr/lib/gcc/arm-none-eabi/6.2.0/include/stddef.h"
 658              		.file 10 "/usr/arm-none-eabi/include/sys/reent.h"
 659              		.file 11 "Drivers/CMSIS/Device/ST/STM32L4xx/Include/stm32l4xx.h"
 660              		.file 12 "Drivers/STM32L4xx_HAL_Driver/Inc/stm32l4xx_hal_def.h"
 661              		.file 13 "Drivers/STM32L4xx_HAL_Driver/Inc/stm32l4xx_hal_dma.h"
 662              		.file 14 "Drivers/STM32L4xx_HAL_Driver/Inc/stm32l4xx_hal_uart.h"
 663              		.file 15 "Drivers/STM32L4xx_HAL_Driver/Inc/stm32l4xx_hal_uart_ex.h"
ARM GAS  /tmp/cc1ehK8Z.s 			page 21

