ARM GAS  /tmp/ccMdFX4h.s 			page 1


   1              		.cpu cortex-m4
   2              		.eabi_attribute 27, 1
   3              		.eabi_attribute 28, 1
   4              		.eabi_attribute 20, 1
   5              		.eabi_attribute 21, 1
   6              		.eabi_attribute 23, 3
   7              		.eabi_attribute 24, 1
   8              		.eabi_attribute 25, 1
   9              		.eabi_attribute 26, 1
  10              		.eabi_attribute 30, 6
  11              		.eabi_attribute 34, 1
  12              		.eabi_attribute 18, 4
  13              		.file	"stm32l4xx_hal_uart.c"
  14              		.text
  15              	.Ltext0:
  16              		.cfi_sections	.debug_frame
  17              		.section	.text.HAL_UART_Init,"ax",%progbits
  18              		.align	1
  19              		.global	HAL_UART_Init
  20              		.syntax unified
  21              		.thumb
  22              		.thumb_func
  23              		.fpu fpv4-sp-d16
  25              	HAL_UART_Init:
  26              	.LFB126:
  27              		.file 1 "Drivers/STM32L4xx_HAL_Driver/Src/stm32l4xx_hal_uart.c"
   1:Drivers/STM32L4xx_HAL_Driver/Src/stm32l4xx_hal_uart.c **** /**
   2:Drivers/STM32L4xx_HAL_Driver/Src/stm32l4xx_hal_uart.c ****   ******************************************************************************
   3:Drivers/STM32L4xx_HAL_Driver/Src/stm32l4xx_hal_uart.c ****   * @file    stm32l4xx_hal_uart.c
   4:Drivers/STM32L4xx_HAL_Driver/Src/stm32l4xx_hal_uart.c ****   * @author  MCD Application Team
   5:Drivers/STM32L4xx_HAL_Driver/Src/stm32l4xx_hal_uart.c ****   * @version V1.5.2
   6:Drivers/STM32L4xx_HAL_Driver/Src/stm32l4xx_hal_uart.c ****   * @date    12-September-2016
   7:Drivers/STM32L4xx_HAL_Driver/Src/stm32l4xx_hal_uart.c ****   * @brief   UART HAL module driver.
   8:Drivers/STM32L4xx_HAL_Driver/Src/stm32l4xx_hal_uart.c ****   *          This file provides firmware functions to manage the following
   9:Drivers/STM32L4xx_HAL_Driver/Src/stm32l4xx_hal_uart.c ****   *          functionalities of the Universal Asynchronous Receiver Transmitter Peripheral (UART).
  10:Drivers/STM32L4xx_HAL_Driver/Src/stm32l4xx_hal_uart.c ****   *           + Initialization and de-initialization functions
  11:Drivers/STM32L4xx_HAL_Driver/Src/stm32l4xx_hal_uart.c ****   *           + IO operation functions
  12:Drivers/STM32L4xx_HAL_Driver/Src/stm32l4xx_hal_uart.c ****   *           + Peripheral Control functions
  13:Drivers/STM32L4xx_HAL_Driver/Src/stm32l4xx_hal_uart.c ****   *
  14:Drivers/STM32L4xx_HAL_Driver/Src/stm32l4xx_hal_uart.c ****   *
  15:Drivers/STM32L4xx_HAL_Driver/Src/stm32l4xx_hal_uart.c ****   @verbatim
  16:Drivers/STM32L4xx_HAL_Driver/Src/stm32l4xx_hal_uart.c ****  ===============================================================================
  17:Drivers/STM32L4xx_HAL_Driver/Src/stm32l4xx_hal_uart.c ****                         ##### How to use this driver #####
  18:Drivers/STM32L4xx_HAL_Driver/Src/stm32l4xx_hal_uart.c ****  ===============================================================================
  19:Drivers/STM32L4xx_HAL_Driver/Src/stm32l4xx_hal_uart.c ****   [..]
  20:Drivers/STM32L4xx_HAL_Driver/Src/stm32l4xx_hal_uart.c ****     The UART HAL driver can be used as follows:
  21:Drivers/STM32L4xx_HAL_Driver/Src/stm32l4xx_hal_uart.c **** 
  22:Drivers/STM32L4xx_HAL_Driver/Src/stm32l4xx_hal_uart.c ****     (#) Declare a UART_HandleTypeDef handle structure (eg. UART_HandleTypeDef huart).
  23:Drivers/STM32L4xx_HAL_Driver/Src/stm32l4xx_hal_uart.c ****     (#) Initialize the UART low level resources by implementing the HAL_UART_MspInit() API:
  24:Drivers/STM32L4xx_HAL_Driver/Src/stm32l4xx_hal_uart.c ****         (++) Enable the USARTx interface clock.
  25:Drivers/STM32L4xx_HAL_Driver/Src/stm32l4xx_hal_uart.c ****         (++) UART pins configuration:
  26:Drivers/STM32L4xx_HAL_Driver/Src/stm32l4xx_hal_uart.c ****             (+++) Enable the clock for the UART GPIOs.
  27:Drivers/STM32L4xx_HAL_Driver/Src/stm32l4xx_hal_uart.c ****             (+++) Configure these UART pins as alternate function pull-up.
  28:Drivers/STM32L4xx_HAL_Driver/Src/stm32l4xx_hal_uart.c ****         (++) NVIC configuration if you need to use interrupt process (HAL_UART_Transmit_IT()
  29:Drivers/STM32L4xx_HAL_Driver/Src/stm32l4xx_hal_uart.c ****              and HAL_UART_Receive_IT() APIs):
  30:Drivers/STM32L4xx_HAL_Driver/Src/stm32l4xx_hal_uart.c ****             (+++) Configure the USARTx interrupt priority.
  31:Drivers/STM32L4xx_HAL_Driver/Src/stm32l4xx_hal_uart.c ****             (+++) Enable the NVIC USART IRQ handle.
ARM GAS  /tmp/ccMdFX4h.s 			page 2


  32:Drivers/STM32L4xx_HAL_Driver/Src/stm32l4xx_hal_uart.c ****         (++) UART interrupts handling:
  33:Drivers/STM32L4xx_HAL_Driver/Src/stm32l4xx_hal_uart.c ****               -@@-  The specific UART interrupts (Transmission complete interrupt,
  34:Drivers/STM32L4xx_HAL_Driver/Src/stm32l4xx_hal_uart.c ****                 RXNE interrupt and Error Interrupts) are managed using the macros
  35:Drivers/STM32L4xx_HAL_Driver/Src/stm32l4xx_hal_uart.c ****                 __HAL_UART_ENABLE_IT() and __HAL_UART_DISABLE_IT() inside the transmit and receive 
  36:Drivers/STM32L4xx_HAL_Driver/Src/stm32l4xx_hal_uart.c ****         (++) DMA Configuration if you need to use DMA process (HAL_UART_Transmit_DMA()
  37:Drivers/STM32L4xx_HAL_Driver/Src/stm32l4xx_hal_uart.c ****              and HAL_UART_Receive_DMA() APIs):
  38:Drivers/STM32L4xx_HAL_Driver/Src/stm32l4xx_hal_uart.c ****             (+++) Declare a DMA handle structure for the Tx/Rx channel.
  39:Drivers/STM32L4xx_HAL_Driver/Src/stm32l4xx_hal_uart.c ****             (+++) Enable the DMAx interface clock.
  40:Drivers/STM32L4xx_HAL_Driver/Src/stm32l4xx_hal_uart.c ****             (+++) Configure the declared DMA handle structure with the required Tx/Rx parameters.
  41:Drivers/STM32L4xx_HAL_Driver/Src/stm32l4xx_hal_uart.c ****             (+++) Configure the DMA Tx/Rx channel.
  42:Drivers/STM32L4xx_HAL_Driver/Src/stm32l4xx_hal_uart.c ****             (+++) Associate the initialized DMA handle to the UART DMA Tx/Rx handle.
  43:Drivers/STM32L4xx_HAL_Driver/Src/stm32l4xx_hal_uart.c ****             (+++) Configure the priority and enable the NVIC for the transfer complete interrupt on
  44:Drivers/STM32L4xx_HAL_Driver/Src/stm32l4xx_hal_uart.c **** 
  45:Drivers/STM32L4xx_HAL_Driver/Src/stm32l4xx_hal_uart.c ****     (#) Program the Baud Rate, Word Length, Stop Bit, Parity, Hardware
  46:Drivers/STM32L4xx_HAL_Driver/Src/stm32l4xx_hal_uart.c ****         flow control and Mode (Receiver/Transmitter) in the huart handle Init structure.
  47:Drivers/STM32L4xx_HAL_Driver/Src/stm32l4xx_hal_uart.c **** 
  48:Drivers/STM32L4xx_HAL_Driver/Src/stm32l4xx_hal_uart.c ****     (#) If required, program UART advanced features (TX/RX pins swap, auto Baud rate detection,...)
  49:Drivers/STM32L4xx_HAL_Driver/Src/stm32l4xx_hal_uart.c ****         in the huart handle AdvancedInit structure.
  50:Drivers/STM32L4xx_HAL_Driver/Src/stm32l4xx_hal_uart.c **** 
  51:Drivers/STM32L4xx_HAL_Driver/Src/stm32l4xx_hal_uart.c ****     (#) For the UART asynchronous mode, initialize the UART registers by calling
  52:Drivers/STM32L4xx_HAL_Driver/Src/stm32l4xx_hal_uart.c ****         the HAL_UART_Init() API.
  53:Drivers/STM32L4xx_HAL_Driver/Src/stm32l4xx_hal_uart.c **** 
  54:Drivers/STM32L4xx_HAL_Driver/Src/stm32l4xx_hal_uart.c ****     (#) For the UART Half duplex mode, initialize the UART registers by calling
  55:Drivers/STM32L4xx_HAL_Driver/Src/stm32l4xx_hal_uart.c ****         the HAL_HalfDuplex_Init() API.
  56:Drivers/STM32L4xx_HAL_Driver/Src/stm32l4xx_hal_uart.c **** 
  57:Drivers/STM32L4xx_HAL_Driver/Src/stm32l4xx_hal_uart.c ****     (#) For the UART LIN (Local Interconnection Network) mode, initialize the UART registers
  58:Drivers/STM32L4xx_HAL_Driver/Src/stm32l4xx_hal_uart.c ****         by calling the HAL_LIN_Init() API.
  59:Drivers/STM32L4xx_HAL_Driver/Src/stm32l4xx_hal_uart.c **** 
  60:Drivers/STM32L4xx_HAL_Driver/Src/stm32l4xx_hal_uart.c ****     (#) For the UART Multiprocessor mode, initialize the UART registers
  61:Drivers/STM32L4xx_HAL_Driver/Src/stm32l4xx_hal_uart.c ****         by calling the HAL_MultiProcessor_Init() API.
  62:Drivers/STM32L4xx_HAL_Driver/Src/stm32l4xx_hal_uart.c **** 
  63:Drivers/STM32L4xx_HAL_Driver/Src/stm32l4xx_hal_uart.c ****     (#) For the UART RS485 Driver Enabled mode, initialize the UART registers
  64:Drivers/STM32L4xx_HAL_Driver/Src/stm32l4xx_hal_uart.c ****         by calling the HAL_RS485Ex_Init() API.
  65:Drivers/STM32L4xx_HAL_Driver/Src/stm32l4xx_hal_uart.c **** 
  66:Drivers/STM32L4xx_HAL_Driver/Src/stm32l4xx_hal_uart.c ****     [..]
  67:Drivers/STM32L4xx_HAL_Driver/Src/stm32l4xx_hal_uart.c ****     (@) These API's (HAL_UART_Init(), HAL_HalfDuplex_Init(), HAL_LIN_Init(), HAL_MultiProcessor_Ini
  68:Drivers/STM32L4xx_HAL_Driver/Src/stm32l4xx_hal_uart.c ****         also configure the low level Hardware GPIO, CLOCK, CORTEX...etc) by
  69:Drivers/STM32L4xx_HAL_Driver/Src/stm32l4xx_hal_uart.c ****         calling the customized HAL_UART_MspInit() API.
  70:Drivers/STM32L4xx_HAL_Driver/Src/stm32l4xx_hal_uart.c **** 
  71:Drivers/STM32L4xx_HAL_Driver/Src/stm32l4xx_hal_uart.c ****   @endverbatim
  72:Drivers/STM32L4xx_HAL_Driver/Src/stm32l4xx_hal_uart.c ****   ******************************************************************************
  73:Drivers/STM32L4xx_HAL_Driver/Src/stm32l4xx_hal_uart.c ****   * @attention
  74:Drivers/STM32L4xx_HAL_Driver/Src/stm32l4xx_hal_uart.c ****   *
  75:Drivers/STM32L4xx_HAL_Driver/Src/stm32l4xx_hal_uart.c ****   * <h2><center>&copy; COPYRIGHT(c) 2016 STMicroelectronics</center></h2>
  76:Drivers/STM32L4xx_HAL_Driver/Src/stm32l4xx_hal_uart.c ****   *
  77:Drivers/STM32L4xx_HAL_Driver/Src/stm32l4xx_hal_uart.c ****   * Redistribution and use in source and binary forms, with or without modification,
  78:Drivers/STM32L4xx_HAL_Driver/Src/stm32l4xx_hal_uart.c ****   * are permitted provided that the following conditions are met:
  79:Drivers/STM32L4xx_HAL_Driver/Src/stm32l4xx_hal_uart.c ****   *   1. Redistributions of source code must retain the above copyright notice,
  80:Drivers/STM32L4xx_HAL_Driver/Src/stm32l4xx_hal_uart.c ****   *      this list of conditions and the following disclaimer.
  81:Drivers/STM32L4xx_HAL_Driver/Src/stm32l4xx_hal_uart.c ****   *   2. Redistributions in binary form must reproduce the above copyright notice,
  82:Drivers/STM32L4xx_HAL_Driver/Src/stm32l4xx_hal_uart.c ****   *      this list of conditions and the following disclaimer in the documentation
  83:Drivers/STM32L4xx_HAL_Driver/Src/stm32l4xx_hal_uart.c ****   *      and/or other materials provided with the distribution.
  84:Drivers/STM32L4xx_HAL_Driver/Src/stm32l4xx_hal_uart.c ****   *   3. Neither the name of STMicroelectronics nor the names of its contributors
  85:Drivers/STM32L4xx_HAL_Driver/Src/stm32l4xx_hal_uart.c ****   *      may be used to endorse or promote products derived from this software
  86:Drivers/STM32L4xx_HAL_Driver/Src/stm32l4xx_hal_uart.c ****   *      without specific prior written permission.
  87:Drivers/STM32L4xx_HAL_Driver/Src/stm32l4xx_hal_uart.c ****   *
  88:Drivers/STM32L4xx_HAL_Driver/Src/stm32l4xx_hal_uart.c ****   * THIS SOFTWARE IS PROVIDED BY THE COPYRIGHT HOLDERS AND CONTRIBUTORS "AS IS"
ARM GAS  /tmp/ccMdFX4h.s 			page 3


  89:Drivers/STM32L4xx_HAL_Driver/Src/stm32l4xx_hal_uart.c ****   * AND ANY EXPRESS OR IMPLIED WARRANTIES, INCLUDING, BUT NOT LIMITED TO, THE
  90:Drivers/STM32L4xx_HAL_Driver/Src/stm32l4xx_hal_uart.c ****   * IMPLIED WARRANTIES OF MERCHANTABILITY AND FITNESS FOR A PARTICULAR PURPOSE ARE
  91:Drivers/STM32L4xx_HAL_Driver/Src/stm32l4xx_hal_uart.c ****   * DISCLAIMED. IN NO EVENT SHALL THE COPYRIGHT HOLDER OR CONTRIBUTORS BE LIABLE
  92:Drivers/STM32L4xx_HAL_Driver/Src/stm32l4xx_hal_uart.c ****   * FOR ANY DIRECT, INDIRECT, INCIDENTAL, SPECIAL, EXEMPLARY, OR CONSEQUENTIAL
  93:Drivers/STM32L4xx_HAL_Driver/Src/stm32l4xx_hal_uart.c ****   * DAMAGES (INCLUDING, BUT NOT LIMITED TO, PROCUREMENT OF SUBSTITUTE GOODS OR
  94:Drivers/STM32L4xx_HAL_Driver/Src/stm32l4xx_hal_uart.c ****   * SERVICES; LOSS OF USE, DATA, OR PROFITS; OR BUSINESS INTERRUPTION) HOWEVER
  95:Drivers/STM32L4xx_HAL_Driver/Src/stm32l4xx_hal_uart.c ****   * CAUSED AND ON ANY THEORY OF LIABILITY, WHETHER IN CONTRACT, STRICT LIABILITY,
  96:Drivers/STM32L4xx_HAL_Driver/Src/stm32l4xx_hal_uart.c ****   * OR TORT (INCLUDING NEGLIGENCE OR OTHERWISE) ARISING IN ANY WAY OUT OF THE USE
  97:Drivers/STM32L4xx_HAL_Driver/Src/stm32l4xx_hal_uart.c ****   * OF THIS SOFTWARE, EVEN IF ADVISED OF THE POSSIBILITY OF SUCH DAMAGE.
  98:Drivers/STM32L4xx_HAL_Driver/Src/stm32l4xx_hal_uart.c ****   *
  99:Drivers/STM32L4xx_HAL_Driver/Src/stm32l4xx_hal_uart.c ****   ******************************************************************************
 100:Drivers/STM32L4xx_HAL_Driver/Src/stm32l4xx_hal_uart.c ****   */
 101:Drivers/STM32L4xx_HAL_Driver/Src/stm32l4xx_hal_uart.c **** 
 102:Drivers/STM32L4xx_HAL_Driver/Src/stm32l4xx_hal_uart.c **** /* Includes ------------------------------------------------------------------*/
 103:Drivers/STM32L4xx_HAL_Driver/Src/stm32l4xx_hal_uart.c **** #include "stm32l4xx_hal.h"
 104:Drivers/STM32L4xx_HAL_Driver/Src/stm32l4xx_hal_uart.c **** 
 105:Drivers/STM32L4xx_HAL_Driver/Src/stm32l4xx_hal_uart.c **** /** @addtogroup STM32L4xx_HAL_Driver
 106:Drivers/STM32L4xx_HAL_Driver/Src/stm32l4xx_hal_uart.c ****   * @{
 107:Drivers/STM32L4xx_HAL_Driver/Src/stm32l4xx_hal_uart.c ****   */
 108:Drivers/STM32L4xx_HAL_Driver/Src/stm32l4xx_hal_uart.c **** 
 109:Drivers/STM32L4xx_HAL_Driver/Src/stm32l4xx_hal_uart.c **** /** @defgroup UART UART
 110:Drivers/STM32L4xx_HAL_Driver/Src/stm32l4xx_hal_uart.c ****   * @brief HAL UART module driver
 111:Drivers/STM32L4xx_HAL_Driver/Src/stm32l4xx_hal_uart.c ****   * @{
 112:Drivers/STM32L4xx_HAL_Driver/Src/stm32l4xx_hal_uart.c ****   */
 113:Drivers/STM32L4xx_HAL_Driver/Src/stm32l4xx_hal_uart.c **** 
 114:Drivers/STM32L4xx_HAL_Driver/Src/stm32l4xx_hal_uart.c **** #ifdef HAL_UART_MODULE_ENABLED
 115:Drivers/STM32L4xx_HAL_Driver/Src/stm32l4xx_hal_uart.c **** 
 116:Drivers/STM32L4xx_HAL_Driver/Src/stm32l4xx_hal_uart.c **** /* Private typedef -----------------------------------------------------------*/
 117:Drivers/STM32L4xx_HAL_Driver/Src/stm32l4xx_hal_uart.c **** /* Private define ------------------------------------------------------------*/
 118:Drivers/STM32L4xx_HAL_Driver/Src/stm32l4xx_hal_uart.c **** /** @defgroup UART_Private_Constants UART Private Constants
 119:Drivers/STM32L4xx_HAL_Driver/Src/stm32l4xx_hal_uart.c ****   * @{
 120:Drivers/STM32L4xx_HAL_Driver/Src/stm32l4xx_hal_uart.c ****   */
 121:Drivers/STM32L4xx_HAL_Driver/Src/stm32l4xx_hal_uart.c **** #define UART_CR1_FIELDS  ((uint32_t)(USART_CR1_M | USART_CR1_PCE | USART_CR1_PS | \
 122:Drivers/STM32L4xx_HAL_Driver/Src/stm32l4xx_hal_uart.c ****                                      USART_CR1_TE | USART_CR1_RE | USART_CR1_OVER8)) /*!< UART or U
 123:Drivers/STM32L4xx_HAL_Driver/Src/stm32l4xx_hal_uart.c **** 
 124:Drivers/STM32L4xx_HAL_Driver/Src/stm32l4xx_hal_uart.c **** #define UART_LPUART_BRR_MIN           ((uint32_t)0x00000300)  /* LPUART BRR minimum authorized valu
 125:Drivers/STM32L4xx_HAL_Driver/Src/stm32l4xx_hal_uart.c **** #define UART_LPUART_BRR_MAX           ((uint32_t)0x000FFFFF)  /* LPUART BRR maximum authorized valu
 126:Drivers/STM32L4xx_HAL_Driver/Src/stm32l4xx_hal_uart.c **** /**
 127:Drivers/STM32L4xx_HAL_Driver/Src/stm32l4xx_hal_uart.c ****   * @}
 128:Drivers/STM32L4xx_HAL_Driver/Src/stm32l4xx_hal_uart.c ****   */
 129:Drivers/STM32L4xx_HAL_Driver/Src/stm32l4xx_hal_uart.c **** 
 130:Drivers/STM32L4xx_HAL_Driver/Src/stm32l4xx_hal_uart.c **** /* Private macros ------------------------------------------------------------*/
 131:Drivers/STM32L4xx_HAL_Driver/Src/stm32l4xx_hal_uart.c **** /* Private variables ---------------------------------------------------------*/
 132:Drivers/STM32L4xx_HAL_Driver/Src/stm32l4xx_hal_uart.c **** /* Private function prototypes -----------------------------------------------*/
 133:Drivers/STM32L4xx_HAL_Driver/Src/stm32l4xx_hal_uart.c **** /** @addtogroup UART_Private_Functions
 134:Drivers/STM32L4xx_HAL_Driver/Src/stm32l4xx_hal_uart.c ****   * @{
 135:Drivers/STM32L4xx_HAL_Driver/Src/stm32l4xx_hal_uart.c ****   */
 136:Drivers/STM32L4xx_HAL_Driver/Src/stm32l4xx_hal_uart.c **** static void UART_EndTxTransfer(UART_HandleTypeDef *huart);
 137:Drivers/STM32L4xx_HAL_Driver/Src/stm32l4xx_hal_uart.c **** static void UART_EndRxTransfer(UART_HandleTypeDef *huart);
 138:Drivers/STM32L4xx_HAL_Driver/Src/stm32l4xx_hal_uart.c **** static void UART_DMATransmitCplt(DMA_HandleTypeDef *hdma);
 139:Drivers/STM32L4xx_HAL_Driver/Src/stm32l4xx_hal_uart.c **** static void UART_DMAReceiveCplt(DMA_HandleTypeDef *hdma);
 140:Drivers/STM32L4xx_HAL_Driver/Src/stm32l4xx_hal_uart.c **** static void UART_DMARxHalfCplt(DMA_HandleTypeDef *hdma);
 141:Drivers/STM32L4xx_HAL_Driver/Src/stm32l4xx_hal_uart.c **** static void UART_DMATxHalfCplt(DMA_HandleTypeDef *hdma);
 142:Drivers/STM32L4xx_HAL_Driver/Src/stm32l4xx_hal_uart.c **** static void UART_DMAError(DMA_HandleTypeDef *hdma);
 143:Drivers/STM32L4xx_HAL_Driver/Src/stm32l4xx_hal_uart.c **** static void UART_DMAAbortOnError(DMA_HandleTypeDef *hdma);
 144:Drivers/STM32L4xx_HAL_Driver/Src/stm32l4xx_hal_uart.c **** static void UART_DMATxAbortCallback(DMA_HandleTypeDef *hdma);
 145:Drivers/STM32L4xx_HAL_Driver/Src/stm32l4xx_hal_uart.c **** static void UART_DMARxAbortCallback(DMA_HandleTypeDef *hdma);
ARM GAS  /tmp/ccMdFX4h.s 			page 4


 146:Drivers/STM32L4xx_HAL_Driver/Src/stm32l4xx_hal_uart.c **** static void UART_DMATxOnlyAbortCallback(DMA_HandleTypeDef *hdma);
 147:Drivers/STM32L4xx_HAL_Driver/Src/stm32l4xx_hal_uart.c **** static void UART_DMARxOnlyAbortCallback(DMA_HandleTypeDef *hdma);
 148:Drivers/STM32L4xx_HAL_Driver/Src/stm32l4xx_hal_uart.c **** static HAL_StatusTypeDef UART_Transmit_IT(UART_HandleTypeDef *huart);
 149:Drivers/STM32L4xx_HAL_Driver/Src/stm32l4xx_hal_uart.c **** static HAL_StatusTypeDef UART_EndTransmit_IT(UART_HandleTypeDef *huart);
 150:Drivers/STM32L4xx_HAL_Driver/Src/stm32l4xx_hal_uart.c **** static HAL_StatusTypeDef UART_Receive_IT(UART_HandleTypeDef *huart);
 151:Drivers/STM32L4xx_HAL_Driver/Src/stm32l4xx_hal_uart.c **** /**
 152:Drivers/STM32L4xx_HAL_Driver/Src/stm32l4xx_hal_uart.c ****   * @}
 153:Drivers/STM32L4xx_HAL_Driver/Src/stm32l4xx_hal_uart.c ****   */
 154:Drivers/STM32L4xx_HAL_Driver/Src/stm32l4xx_hal_uart.c **** 
 155:Drivers/STM32L4xx_HAL_Driver/Src/stm32l4xx_hal_uart.c **** /* Exported functions --------------------------------------------------------*/
 156:Drivers/STM32L4xx_HAL_Driver/Src/stm32l4xx_hal_uart.c **** 
 157:Drivers/STM32L4xx_HAL_Driver/Src/stm32l4xx_hal_uart.c **** /** @defgroup UART_Exported_Functions UART Exported Functions
 158:Drivers/STM32L4xx_HAL_Driver/Src/stm32l4xx_hal_uart.c ****   * @{
 159:Drivers/STM32L4xx_HAL_Driver/Src/stm32l4xx_hal_uart.c ****   */
 160:Drivers/STM32L4xx_HAL_Driver/Src/stm32l4xx_hal_uart.c **** 
 161:Drivers/STM32L4xx_HAL_Driver/Src/stm32l4xx_hal_uart.c **** /** @defgroup UART_Exported_Functions_Group1 Initialization and de-initialization functions
 162:Drivers/STM32L4xx_HAL_Driver/Src/stm32l4xx_hal_uart.c ****   *  @brief    Initialization and Configuration functions
 163:Drivers/STM32L4xx_HAL_Driver/Src/stm32l4xx_hal_uart.c ****   *
 164:Drivers/STM32L4xx_HAL_Driver/Src/stm32l4xx_hal_uart.c **** @verbatim
 165:Drivers/STM32L4xx_HAL_Driver/Src/stm32l4xx_hal_uart.c **** ===============================================================================
 166:Drivers/STM32L4xx_HAL_Driver/Src/stm32l4xx_hal_uart.c ****             ##### Initialization and Configuration functions #####
 167:Drivers/STM32L4xx_HAL_Driver/Src/stm32l4xx_hal_uart.c ****  ===============================================================================
 168:Drivers/STM32L4xx_HAL_Driver/Src/stm32l4xx_hal_uart.c ****     [..]
 169:Drivers/STM32L4xx_HAL_Driver/Src/stm32l4xx_hal_uart.c ****     This subsection provides a set of functions allowing to initialize the USARTx or the UARTy
 170:Drivers/STM32L4xx_HAL_Driver/Src/stm32l4xx_hal_uart.c ****     in asynchronous mode.
 171:Drivers/STM32L4xx_HAL_Driver/Src/stm32l4xx_hal_uart.c ****       (+) For the asynchronous mode the parameters below can be configured:
 172:Drivers/STM32L4xx_HAL_Driver/Src/stm32l4xx_hal_uart.c ****         (++) Baud Rate
 173:Drivers/STM32L4xx_HAL_Driver/Src/stm32l4xx_hal_uart.c ****         (++) Word Length
 174:Drivers/STM32L4xx_HAL_Driver/Src/stm32l4xx_hal_uart.c ****         (++) Stop Bit
 175:Drivers/STM32L4xx_HAL_Driver/Src/stm32l4xx_hal_uart.c ****         (++) Parity: If the parity is enabled, then the MSB bit of the data written
 176:Drivers/STM32L4xx_HAL_Driver/Src/stm32l4xx_hal_uart.c ****              in the data register is transmitted but is changed by the parity bit.
 177:Drivers/STM32L4xx_HAL_Driver/Src/stm32l4xx_hal_uart.c ****         (++) Hardware flow control
 178:Drivers/STM32L4xx_HAL_Driver/Src/stm32l4xx_hal_uart.c ****         (++) Receiver/transmitter modes
 179:Drivers/STM32L4xx_HAL_Driver/Src/stm32l4xx_hal_uart.c ****         (++) Over Sampling Method
 180:Drivers/STM32L4xx_HAL_Driver/Src/stm32l4xx_hal_uart.c ****         (++) One-Bit Sampling Method
 181:Drivers/STM32L4xx_HAL_Driver/Src/stm32l4xx_hal_uart.c ****       (+) For the asynchronous mode, the following advanced features can be configured as well:
 182:Drivers/STM32L4xx_HAL_Driver/Src/stm32l4xx_hal_uart.c ****         (++) TX and/or RX pin level inversion
 183:Drivers/STM32L4xx_HAL_Driver/Src/stm32l4xx_hal_uart.c ****         (++) data logical level inversion
 184:Drivers/STM32L4xx_HAL_Driver/Src/stm32l4xx_hal_uart.c ****         (++) RX and TX pins swap
 185:Drivers/STM32L4xx_HAL_Driver/Src/stm32l4xx_hal_uart.c ****         (++) RX overrun detection disabling
 186:Drivers/STM32L4xx_HAL_Driver/Src/stm32l4xx_hal_uart.c ****         (++) DMA disabling on RX error
 187:Drivers/STM32L4xx_HAL_Driver/Src/stm32l4xx_hal_uart.c ****         (++) MSB first on communication line
 188:Drivers/STM32L4xx_HAL_Driver/Src/stm32l4xx_hal_uart.c ****         (++) auto Baud rate detection
 189:Drivers/STM32L4xx_HAL_Driver/Src/stm32l4xx_hal_uart.c ****     [..]
 190:Drivers/STM32L4xx_HAL_Driver/Src/stm32l4xx_hal_uart.c ****     The HAL_UART_Init(), HAL_HalfDuplex_Init(), HAL_LIN_Init()and HAL_MultiProcessor_Init()API
 191:Drivers/STM32L4xx_HAL_Driver/Src/stm32l4xx_hal_uart.c ****     follow respectively the UART asynchronous, UART Half duplex, UART LIN mode
 192:Drivers/STM32L4xx_HAL_Driver/Src/stm32l4xx_hal_uart.c ****     and UART multiprocessor mode configuration procedures (details for the procedures
 193:Drivers/STM32L4xx_HAL_Driver/Src/stm32l4xx_hal_uart.c ****     are available in reference manual).
 194:Drivers/STM32L4xx_HAL_Driver/Src/stm32l4xx_hal_uart.c **** 
 195:Drivers/STM32L4xx_HAL_Driver/Src/stm32l4xx_hal_uart.c **** @endverbatim
 196:Drivers/STM32L4xx_HAL_Driver/Src/stm32l4xx_hal_uart.c **** 
 197:Drivers/STM32L4xx_HAL_Driver/Src/stm32l4xx_hal_uart.c ****   Depending on the frame length defined by the M1 and M0 bits (7-bit, 
 198:Drivers/STM32L4xx_HAL_Driver/Src/stm32l4xx_hal_uart.c ****   8-bit or 9-bit), the possible UART formats are listed in the 
 199:Drivers/STM32L4xx_HAL_Driver/Src/stm32l4xx_hal_uart.c ****   following table.
 200:Drivers/STM32L4xx_HAL_Driver/Src/stm32l4xx_hal_uart.c ****   
 201:Drivers/STM32L4xx_HAL_Driver/Src/stm32l4xx_hal_uart.c ****   Table 1. UART frame format.
 202:Drivers/STM32L4xx_HAL_Driver/Src/stm32l4xx_hal_uart.c ****     +-----------------------------------------------------------------------+
ARM GAS  /tmp/ccMdFX4h.s 			page 5


 203:Drivers/STM32L4xx_HAL_Driver/Src/stm32l4xx_hal_uart.c ****     |  M1 bit |  M0 bit |  PCE bit  |             UART frame                |
 204:Drivers/STM32L4xx_HAL_Driver/Src/stm32l4xx_hal_uart.c ****     |---------|---------|-----------|---------------------------------------|
 205:Drivers/STM32L4xx_HAL_Driver/Src/stm32l4xx_hal_uart.c ****     |    0    |    0    |    0      |    | SB |    8 bit data   | STB |     |
 206:Drivers/STM32L4xx_HAL_Driver/Src/stm32l4xx_hal_uart.c ****     |---------|---------|-----------|---------------------------------------|
 207:Drivers/STM32L4xx_HAL_Driver/Src/stm32l4xx_hal_uart.c ****     |    0    |    0    |    1      |    | SB | 7 bit data | PB | STB |     |
 208:Drivers/STM32L4xx_HAL_Driver/Src/stm32l4xx_hal_uart.c ****     |---------|---------|-----------|---------------------------------------|
 209:Drivers/STM32L4xx_HAL_Driver/Src/stm32l4xx_hal_uart.c ****     |    0    |    1    |    0      |    | SB |    9 bit data   | STB |     |
 210:Drivers/STM32L4xx_HAL_Driver/Src/stm32l4xx_hal_uart.c ****     |---------|---------|-----------|---------------------------------------|
 211:Drivers/STM32L4xx_HAL_Driver/Src/stm32l4xx_hal_uart.c ****     |    0    |    1    |    1      |    | SB | 8 bit data | PB | STB |     |
 212:Drivers/STM32L4xx_HAL_Driver/Src/stm32l4xx_hal_uart.c ****     |---------|---------|-----------|---------------------------------------|
 213:Drivers/STM32L4xx_HAL_Driver/Src/stm32l4xx_hal_uart.c ****     |    1    |    0    |    0      |    | SB |    7 bit data   | STB |     |
 214:Drivers/STM32L4xx_HAL_Driver/Src/stm32l4xx_hal_uart.c ****     |---------|---------|-----------|---------------------------------------|
 215:Drivers/STM32L4xx_HAL_Driver/Src/stm32l4xx_hal_uart.c ****     |    1    |    0    |    1      |    | SB | 6 bit data | PB | STB |     |
 216:Drivers/STM32L4xx_HAL_Driver/Src/stm32l4xx_hal_uart.c ****     +-----------------------------------------------------------------------+
 217:Drivers/STM32L4xx_HAL_Driver/Src/stm32l4xx_hal_uart.c **** 
 218:Drivers/STM32L4xx_HAL_Driver/Src/stm32l4xx_hal_uart.c ****   * @{
 219:Drivers/STM32L4xx_HAL_Driver/Src/stm32l4xx_hal_uart.c ****   */
 220:Drivers/STM32L4xx_HAL_Driver/Src/stm32l4xx_hal_uart.c **** 
 221:Drivers/STM32L4xx_HAL_Driver/Src/stm32l4xx_hal_uart.c **** /**
 222:Drivers/STM32L4xx_HAL_Driver/Src/stm32l4xx_hal_uart.c ****   * @brief Initialize the UART mode according to the specified
 223:Drivers/STM32L4xx_HAL_Driver/Src/stm32l4xx_hal_uart.c ****   *        parameters in the UART_InitTypeDef and initialize the associated handle.
 224:Drivers/STM32L4xx_HAL_Driver/Src/stm32l4xx_hal_uart.c ****   * @param huart: UART handle.
 225:Drivers/STM32L4xx_HAL_Driver/Src/stm32l4xx_hal_uart.c ****   * @retval HAL status
 226:Drivers/STM32L4xx_HAL_Driver/Src/stm32l4xx_hal_uart.c ****   */
 227:Drivers/STM32L4xx_HAL_Driver/Src/stm32l4xx_hal_uart.c **** HAL_StatusTypeDef HAL_UART_Init(UART_HandleTypeDef *huart)
 228:Drivers/STM32L4xx_HAL_Driver/Src/stm32l4xx_hal_uart.c **** {
  28              		.loc 1 228 0
  29              		.cfi_startproc
  30              		@ args = 0, pretend = 0, frame = 8
  31              		@ frame_needed = 1, uses_anonymous_args = 0
  32 0000 80B5     		push	{r7, lr}
  33              	.LCFI0:
  34              		.cfi_def_cfa_offset 8
  35              		.cfi_offset 7, -8
  36              		.cfi_offset 14, -4
  37 0002 82B0     		sub	sp, sp, #8
  38              	.LCFI1:
  39              		.cfi_def_cfa_offset 16
  40 0004 00AF     		add	r7, sp, #0
  41              	.LCFI2:
  42              		.cfi_def_cfa_register 7
  43 0006 7860     		str	r0, [r7, #4]
 229:Drivers/STM32L4xx_HAL_Driver/Src/stm32l4xx_hal_uart.c ****   /* Check the UART handle allocation */
 230:Drivers/STM32L4xx_HAL_Driver/Src/stm32l4xx_hal_uart.c ****   if(huart == NULL)
  44              		.loc 1 230 0
  45 0008 7B68     		ldr	r3, [r7, #4]
  46 000a 002B     		cmp	r3, #0
  47 000c 01D1     		bne	.L2
 231:Drivers/STM32L4xx_HAL_Driver/Src/stm32l4xx_hal_uart.c ****   {
 232:Drivers/STM32L4xx_HAL_Driver/Src/stm32l4xx_hal_uart.c ****     return HAL_ERROR;
  48              		.loc 1 232 0
  49 000e 0123     		movs	r3, #1
  50 0010 43E0     		b	.L3
  51              	.L2:
 233:Drivers/STM32L4xx_HAL_Driver/Src/stm32l4xx_hal_uart.c ****   }
 234:Drivers/STM32L4xx_HAL_Driver/Src/stm32l4xx_hal_uart.c **** 
 235:Drivers/STM32L4xx_HAL_Driver/Src/stm32l4xx_hal_uart.c ****   if(huart->Init.HwFlowCtl != UART_HWCONTROL_NONE)
ARM GAS  /tmp/ccMdFX4h.s 			page 6


 236:Drivers/STM32L4xx_HAL_Driver/Src/stm32l4xx_hal_uart.c ****   {
 237:Drivers/STM32L4xx_HAL_Driver/Src/stm32l4xx_hal_uart.c ****     /* Check the parameters */
 238:Drivers/STM32L4xx_HAL_Driver/Src/stm32l4xx_hal_uart.c ****     assert_param(IS_UART_HWFLOW_INSTANCE(huart->Instance));
 239:Drivers/STM32L4xx_HAL_Driver/Src/stm32l4xx_hal_uart.c ****   }
 240:Drivers/STM32L4xx_HAL_Driver/Src/stm32l4xx_hal_uart.c ****   else
 241:Drivers/STM32L4xx_HAL_Driver/Src/stm32l4xx_hal_uart.c ****   {
 242:Drivers/STM32L4xx_HAL_Driver/Src/stm32l4xx_hal_uart.c ****     /* Check the parameters */
 243:Drivers/STM32L4xx_HAL_Driver/Src/stm32l4xx_hal_uart.c ****     assert_param((IS_UART_INSTANCE(huart->Instance)) || (IS_LPUART_INSTANCE(huart->Instance)));
 244:Drivers/STM32L4xx_HAL_Driver/Src/stm32l4xx_hal_uart.c ****   }
 245:Drivers/STM32L4xx_HAL_Driver/Src/stm32l4xx_hal_uart.c **** 
 246:Drivers/STM32L4xx_HAL_Driver/Src/stm32l4xx_hal_uart.c ****   if(huart->gState == HAL_UART_STATE_RESET)
  52              		.loc 1 246 0
  53 0012 7B68     		ldr	r3, [r7, #4]
  54 0014 93F86930 		ldrb	r3, [r3, #105]
  55 0018 DBB2     		uxtb	r3, r3
  56 001a 002B     		cmp	r3, #0
  57 001c 06D1     		bne	.L4
 247:Drivers/STM32L4xx_HAL_Driver/Src/stm32l4xx_hal_uart.c ****   {
 248:Drivers/STM32L4xx_HAL_Driver/Src/stm32l4xx_hal_uart.c ****     /* Allocate lock resource and initialize it */
 249:Drivers/STM32L4xx_HAL_Driver/Src/stm32l4xx_hal_uart.c ****     huart->Lock = HAL_UNLOCKED;
  58              		.loc 1 249 0
  59 001e 7B68     		ldr	r3, [r7, #4]
  60 0020 0022     		movs	r2, #0
  61 0022 83F86820 		strb	r2, [r3, #104]
 250:Drivers/STM32L4xx_HAL_Driver/Src/stm32l4xx_hal_uart.c **** 
 251:Drivers/STM32L4xx_HAL_Driver/Src/stm32l4xx_hal_uart.c ****     /* Init the low level hardware : GPIO, CLOCK */
 252:Drivers/STM32L4xx_HAL_Driver/Src/stm32l4xx_hal_uart.c ****     HAL_UART_MspInit(huart);
  62              		.loc 1 252 0
  63 0026 7868     		ldr	r0, [r7, #4]
  64 0028 FFF7FEFF 		bl	HAL_UART_MspInit
  65              	.L4:
 253:Drivers/STM32L4xx_HAL_Driver/Src/stm32l4xx_hal_uart.c ****   }
 254:Drivers/STM32L4xx_HAL_Driver/Src/stm32l4xx_hal_uart.c **** 
 255:Drivers/STM32L4xx_HAL_Driver/Src/stm32l4xx_hal_uart.c ****   huart->gState = HAL_UART_STATE_BUSY;
  66              		.loc 1 255 0
  67 002c 7B68     		ldr	r3, [r7, #4]
  68 002e 2422     		movs	r2, #36
  69 0030 83F86920 		strb	r2, [r3, #105]
 256:Drivers/STM32L4xx_HAL_Driver/Src/stm32l4xx_hal_uart.c **** 
 257:Drivers/STM32L4xx_HAL_Driver/Src/stm32l4xx_hal_uart.c ****   /* Disable the Peripheral */
 258:Drivers/STM32L4xx_HAL_Driver/Src/stm32l4xx_hal_uart.c ****   __HAL_UART_DISABLE(huart);
  70              		.loc 1 258 0
  71 0034 7B68     		ldr	r3, [r7, #4]
  72 0036 1B68     		ldr	r3, [r3]
  73 0038 7A68     		ldr	r2, [r7, #4]
  74 003a 1268     		ldr	r2, [r2]
  75 003c 1268     		ldr	r2, [r2]
  76 003e 22F00102 		bic	r2, r2, #1
  77 0042 1A60     		str	r2, [r3]
 259:Drivers/STM32L4xx_HAL_Driver/Src/stm32l4xx_hal_uart.c **** 
 260:Drivers/STM32L4xx_HAL_Driver/Src/stm32l4xx_hal_uart.c ****   /* Set the UART Communication parameters */
 261:Drivers/STM32L4xx_HAL_Driver/Src/stm32l4xx_hal_uart.c ****   if (UART_SetConfig(huart) == HAL_ERROR)
  78              		.loc 1 261 0
  79 0044 7868     		ldr	r0, [r7, #4]
  80 0046 FFF7FEFF 		bl	UART_SetConfig
  81 004a 0346     		mov	r3, r0
  82 004c 012B     		cmp	r3, #1
ARM GAS  /tmp/ccMdFX4h.s 			page 7


  83 004e 01D1     		bne	.L5
 262:Drivers/STM32L4xx_HAL_Driver/Src/stm32l4xx_hal_uart.c ****   {
 263:Drivers/STM32L4xx_HAL_Driver/Src/stm32l4xx_hal_uart.c ****     return HAL_ERROR;
  84              		.loc 1 263 0
  85 0050 0123     		movs	r3, #1
  86 0052 22E0     		b	.L3
  87              	.L5:
 264:Drivers/STM32L4xx_HAL_Driver/Src/stm32l4xx_hal_uart.c ****   }
 265:Drivers/STM32L4xx_HAL_Driver/Src/stm32l4xx_hal_uart.c **** 
 266:Drivers/STM32L4xx_HAL_Driver/Src/stm32l4xx_hal_uart.c ****   if (huart->AdvancedInit.AdvFeatureInit != UART_ADVFEATURE_NO_INIT)
  88              		.loc 1 266 0
  89 0054 7B68     		ldr	r3, [r7, #4]
  90 0056 5B6A     		ldr	r3, [r3, #36]
  91 0058 002B     		cmp	r3, #0
  92 005a 02D0     		beq	.L6
 267:Drivers/STM32L4xx_HAL_Driver/Src/stm32l4xx_hal_uart.c ****   {
 268:Drivers/STM32L4xx_HAL_Driver/Src/stm32l4xx_hal_uart.c ****     UART_AdvFeatureConfig(huart);
  93              		.loc 1 268 0
  94 005c 7868     		ldr	r0, [r7, #4]
  95 005e FFF7FEFF 		bl	UART_AdvFeatureConfig
  96              	.L6:
 269:Drivers/STM32L4xx_HAL_Driver/Src/stm32l4xx_hal_uart.c ****   }
 270:Drivers/STM32L4xx_HAL_Driver/Src/stm32l4xx_hal_uart.c **** 
 271:Drivers/STM32L4xx_HAL_Driver/Src/stm32l4xx_hal_uart.c ****   /* In asynchronous mode, the following bits must be kept cleared:
 272:Drivers/STM32L4xx_HAL_Driver/Src/stm32l4xx_hal_uart.c ****   - LINEN and CLKEN bits in the USART_CR2 register,
 273:Drivers/STM32L4xx_HAL_Driver/Src/stm32l4xx_hal_uart.c ****   - SCEN, HDSEL and IREN  bits in the USART_CR3 register.*/
 274:Drivers/STM32L4xx_HAL_Driver/Src/stm32l4xx_hal_uart.c ****   CLEAR_BIT(huart->Instance->CR2, (USART_CR2_LINEN | USART_CR2_CLKEN));
  97              		.loc 1 274 0
  98 0062 7B68     		ldr	r3, [r7, #4]
  99 0064 1B68     		ldr	r3, [r3]
 100 0066 7A68     		ldr	r2, [r7, #4]
 101 0068 1268     		ldr	r2, [r2]
 102 006a 5268     		ldr	r2, [r2, #4]
 103 006c 22F49042 		bic	r2, r2, #18432
 104 0070 5A60     		str	r2, [r3, #4]
 275:Drivers/STM32L4xx_HAL_Driver/Src/stm32l4xx_hal_uart.c ****   CLEAR_BIT(huart->Instance->CR3, (USART_CR3_SCEN | USART_CR3_HDSEL | USART_CR3_IREN));
 105              		.loc 1 275 0
 106 0072 7B68     		ldr	r3, [r7, #4]
 107 0074 1B68     		ldr	r3, [r3]
 108 0076 7A68     		ldr	r2, [r7, #4]
 109 0078 1268     		ldr	r2, [r2]
 110 007a 9268     		ldr	r2, [r2, #8]
 111 007c 22F02A02 		bic	r2, r2, #42
 112 0080 9A60     		str	r2, [r3, #8]
 276:Drivers/STM32L4xx_HAL_Driver/Src/stm32l4xx_hal_uart.c **** 
 277:Drivers/STM32L4xx_HAL_Driver/Src/stm32l4xx_hal_uart.c ****   /* Enable the Peripheral */
 278:Drivers/STM32L4xx_HAL_Driver/Src/stm32l4xx_hal_uart.c ****   __HAL_UART_ENABLE(huart);
 113              		.loc 1 278 0
 114 0082 7B68     		ldr	r3, [r7, #4]
 115 0084 1B68     		ldr	r3, [r3]
 116 0086 7A68     		ldr	r2, [r7, #4]
 117 0088 1268     		ldr	r2, [r2]
 118 008a 1268     		ldr	r2, [r2]
 119 008c 42F00102 		orr	r2, r2, #1
 120 0090 1A60     		str	r2, [r3]
 279:Drivers/STM32L4xx_HAL_Driver/Src/stm32l4xx_hal_uart.c **** 
 280:Drivers/STM32L4xx_HAL_Driver/Src/stm32l4xx_hal_uart.c ****   /* TEACK and/or REACK to check before moving huart->gState and huart->RxState to Ready */
ARM GAS  /tmp/ccMdFX4h.s 			page 8


 281:Drivers/STM32L4xx_HAL_Driver/Src/stm32l4xx_hal_uart.c ****   return (UART_CheckIdleState(huart));
 121              		.loc 1 281 0
 122 0092 7868     		ldr	r0, [r7, #4]
 123 0094 FFF7FEFF 		bl	UART_CheckIdleState
 124 0098 0346     		mov	r3, r0
 125              	.L3:
 282:Drivers/STM32L4xx_HAL_Driver/Src/stm32l4xx_hal_uart.c **** }
 126              		.loc 1 282 0
 127 009a 1846     		mov	r0, r3
 128 009c 0837     		adds	r7, r7, #8
 129              	.LCFI3:
 130              		.cfi_def_cfa_offset 8
 131 009e BD46     		mov	sp, r7
 132              	.LCFI4:
 133              		.cfi_def_cfa_register 13
 134              		@ sp needed
 135 00a0 80BD     		pop	{r7, pc}
 136              		.cfi_endproc
 137              	.LFE126:
 139              		.section	.text.HAL_HalfDuplex_Init,"ax",%progbits
 140              		.align	1
 141              		.global	HAL_HalfDuplex_Init
 142              		.syntax unified
 143              		.thumb
 144              		.thumb_func
 145              		.fpu fpv4-sp-d16
 147              	HAL_HalfDuplex_Init:
 148              	.LFB127:
 283:Drivers/STM32L4xx_HAL_Driver/Src/stm32l4xx_hal_uart.c **** 
 284:Drivers/STM32L4xx_HAL_Driver/Src/stm32l4xx_hal_uart.c **** /**
 285:Drivers/STM32L4xx_HAL_Driver/Src/stm32l4xx_hal_uart.c ****   * @brief Initialize the half-duplex mode according to the specified
 286:Drivers/STM32L4xx_HAL_Driver/Src/stm32l4xx_hal_uart.c ****   *        parameters in the UART_InitTypeDef and creates the associated handle.
 287:Drivers/STM32L4xx_HAL_Driver/Src/stm32l4xx_hal_uart.c ****   * @param huart: UART handle.
 288:Drivers/STM32L4xx_HAL_Driver/Src/stm32l4xx_hal_uart.c ****   * @retval HAL status
 289:Drivers/STM32L4xx_HAL_Driver/Src/stm32l4xx_hal_uart.c ****   */
 290:Drivers/STM32L4xx_HAL_Driver/Src/stm32l4xx_hal_uart.c **** HAL_StatusTypeDef HAL_HalfDuplex_Init(UART_HandleTypeDef *huart)
 291:Drivers/STM32L4xx_HAL_Driver/Src/stm32l4xx_hal_uart.c **** {
 149              		.loc 1 291 0
 150              		.cfi_startproc
 151              		@ args = 0, pretend = 0, frame = 8
 152              		@ frame_needed = 1, uses_anonymous_args = 0
 153 0000 80B5     		push	{r7, lr}
 154              	.LCFI5:
 155              		.cfi_def_cfa_offset 8
 156              		.cfi_offset 7, -8
 157              		.cfi_offset 14, -4
 158 0002 82B0     		sub	sp, sp, #8
 159              	.LCFI6:
 160              		.cfi_def_cfa_offset 16
 161 0004 00AF     		add	r7, sp, #0
 162              	.LCFI7:
 163              		.cfi_def_cfa_register 7
 164 0006 7860     		str	r0, [r7, #4]
 292:Drivers/STM32L4xx_HAL_Driver/Src/stm32l4xx_hal_uart.c ****   /* Check the UART handle allocation */
 293:Drivers/STM32L4xx_HAL_Driver/Src/stm32l4xx_hal_uart.c ****   if(huart == NULL)
 165              		.loc 1 293 0
 166 0008 7B68     		ldr	r3, [r7, #4]
ARM GAS  /tmp/ccMdFX4h.s 			page 9


 167 000a 002B     		cmp	r3, #0
 168 000c 01D1     		bne	.L8
 294:Drivers/STM32L4xx_HAL_Driver/Src/stm32l4xx_hal_uart.c ****   {
 295:Drivers/STM32L4xx_HAL_Driver/Src/stm32l4xx_hal_uart.c ****     return HAL_ERROR;
 169              		.loc 1 295 0
 170 000e 0123     		movs	r3, #1
 171 0010 4BE0     		b	.L9
 172              	.L8:
 296:Drivers/STM32L4xx_HAL_Driver/Src/stm32l4xx_hal_uart.c ****   }
 297:Drivers/STM32L4xx_HAL_Driver/Src/stm32l4xx_hal_uart.c **** 
 298:Drivers/STM32L4xx_HAL_Driver/Src/stm32l4xx_hal_uart.c ****   /* Check UART instance */
 299:Drivers/STM32L4xx_HAL_Driver/Src/stm32l4xx_hal_uart.c ****   assert_param(IS_UART_HALFDUPLEX_INSTANCE(huart->Instance));
 300:Drivers/STM32L4xx_HAL_Driver/Src/stm32l4xx_hal_uart.c **** 
 301:Drivers/STM32L4xx_HAL_Driver/Src/stm32l4xx_hal_uart.c ****   if(huart->gState == HAL_UART_STATE_RESET)
 173              		.loc 1 301 0
 174 0012 7B68     		ldr	r3, [r7, #4]
 175 0014 93F86930 		ldrb	r3, [r3, #105]
 176 0018 DBB2     		uxtb	r3, r3
 177 001a 002B     		cmp	r3, #0
 178 001c 06D1     		bne	.L10
 302:Drivers/STM32L4xx_HAL_Driver/Src/stm32l4xx_hal_uart.c ****   {
 303:Drivers/STM32L4xx_HAL_Driver/Src/stm32l4xx_hal_uart.c ****     /* Allocate lock resource and initialize it */
 304:Drivers/STM32L4xx_HAL_Driver/Src/stm32l4xx_hal_uart.c ****     huart->Lock = HAL_UNLOCKED;
 179              		.loc 1 304 0
 180 001e 7B68     		ldr	r3, [r7, #4]
 181 0020 0022     		movs	r2, #0
 182 0022 83F86820 		strb	r2, [r3, #104]
 305:Drivers/STM32L4xx_HAL_Driver/Src/stm32l4xx_hal_uart.c **** 
 306:Drivers/STM32L4xx_HAL_Driver/Src/stm32l4xx_hal_uart.c ****     /* Init the low level hardware : GPIO, CLOCK */
 307:Drivers/STM32L4xx_HAL_Driver/Src/stm32l4xx_hal_uart.c ****     HAL_UART_MspInit(huart);
 183              		.loc 1 307 0
 184 0026 7868     		ldr	r0, [r7, #4]
 185 0028 FFF7FEFF 		bl	HAL_UART_MspInit
 186              	.L10:
 308:Drivers/STM32L4xx_HAL_Driver/Src/stm32l4xx_hal_uart.c ****   }
 309:Drivers/STM32L4xx_HAL_Driver/Src/stm32l4xx_hal_uart.c **** 
 310:Drivers/STM32L4xx_HAL_Driver/Src/stm32l4xx_hal_uart.c ****   huart->gState = HAL_UART_STATE_BUSY;
 187              		.loc 1 310 0
 188 002c 7B68     		ldr	r3, [r7, #4]
 189 002e 2422     		movs	r2, #36
 190 0030 83F86920 		strb	r2, [r3, #105]
 311:Drivers/STM32L4xx_HAL_Driver/Src/stm32l4xx_hal_uart.c **** 
 312:Drivers/STM32L4xx_HAL_Driver/Src/stm32l4xx_hal_uart.c ****   /* Disable the Peripheral */
 313:Drivers/STM32L4xx_HAL_Driver/Src/stm32l4xx_hal_uart.c ****   __HAL_UART_DISABLE(huart);
 191              		.loc 1 313 0
 192 0034 7B68     		ldr	r3, [r7, #4]
 193 0036 1B68     		ldr	r3, [r3]
 194 0038 7A68     		ldr	r2, [r7, #4]
 195 003a 1268     		ldr	r2, [r2]
 196 003c 1268     		ldr	r2, [r2]
 197 003e 22F00102 		bic	r2, r2, #1
 198 0042 1A60     		str	r2, [r3]
 314:Drivers/STM32L4xx_HAL_Driver/Src/stm32l4xx_hal_uart.c **** 
 315:Drivers/STM32L4xx_HAL_Driver/Src/stm32l4xx_hal_uart.c ****   /* Set the UART Communication parameters */
 316:Drivers/STM32L4xx_HAL_Driver/Src/stm32l4xx_hal_uart.c ****   if (UART_SetConfig(huart) == HAL_ERROR)
 199              		.loc 1 316 0
 200 0044 7868     		ldr	r0, [r7, #4]
ARM GAS  /tmp/ccMdFX4h.s 			page 10


 201 0046 FFF7FEFF 		bl	UART_SetConfig
 202 004a 0346     		mov	r3, r0
 203 004c 012B     		cmp	r3, #1
 204 004e 01D1     		bne	.L11
 317:Drivers/STM32L4xx_HAL_Driver/Src/stm32l4xx_hal_uart.c ****   {
 318:Drivers/STM32L4xx_HAL_Driver/Src/stm32l4xx_hal_uart.c ****     return HAL_ERROR;
 205              		.loc 1 318 0
 206 0050 0123     		movs	r3, #1
 207 0052 2AE0     		b	.L9
 208              	.L11:
 319:Drivers/STM32L4xx_HAL_Driver/Src/stm32l4xx_hal_uart.c ****   }
 320:Drivers/STM32L4xx_HAL_Driver/Src/stm32l4xx_hal_uart.c **** 
 321:Drivers/STM32L4xx_HAL_Driver/Src/stm32l4xx_hal_uart.c ****   if (huart->AdvancedInit.AdvFeatureInit != UART_ADVFEATURE_NO_INIT)
 209              		.loc 1 321 0
 210 0054 7B68     		ldr	r3, [r7, #4]
 211 0056 5B6A     		ldr	r3, [r3, #36]
 212 0058 002B     		cmp	r3, #0
 213 005a 02D0     		beq	.L12
 322:Drivers/STM32L4xx_HAL_Driver/Src/stm32l4xx_hal_uart.c ****   {
 323:Drivers/STM32L4xx_HAL_Driver/Src/stm32l4xx_hal_uart.c ****     UART_AdvFeatureConfig(huart);
 214              		.loc 1 323 0
 215 005c 7868     		ldr	r0, [r7, #4]
 216 005e FFF7FEFF 		bl	UART_AdvFeatureConfig
 217              	.L12:
 324:Drivers/STM32L4xx_HAL_Driver/Src/stm32l4xx_hal_uart.c ****   }
 325:Drivers/STM32L4xx_HAL_Driver/Src/stm32l4xx_hal_uart.c **** 
 326:Drivers/STM32L4xx_HAL_Driver/Src/stm32l4xx_hal_uart.c ****   /* In half-duplex mode, the following bits must be kept cleared:
 327:Drivers/STM32L4xx_HAL_Driver/Src/stm32l4xx_hal_uart.c ****   - LINEN and CLKEN bits in the USART_CR2 register,
 328:Drivers/STM32L4xx_HAL_Driver/Src/stm32l4xx_hal_uart.c ****   - SCEN and IREN bits in the USART_CR3 register.*/
 329:Drivers/STM32L4xx_HAL_Driver/Src/stm32l4xx_hal_uart.c ****   CLEAR_BIT(huart->Instance->CR2, (USART_CR2_LINEN | USART_CR2_CLKEN));
 218              		.loc 1 329 0
 219 0062 7B68     		ldr	r3, [r7, #4]
 220 0064 1B68     		ldr	r3, [r3]
 221 0066 7A68     		ldr	r2, [r7, #4]
 222 0068 1268     		ldr	r2, [r2]
 223 006a 5268     		ldr	r2, [r2, #4]
 224 006c 22F49042 		bic	r2, r2, #18432
 225 0070 5A60     		str	r2, [r3, #4]
 330:Drivers/STM32L4xx_HAL_Driver/Src/stm32l4xx_hal_uart.c ****   CLEAR_BIT(huart->Instance->CR3, (USART_CR3_IREN | USART_CR3_SCEN));
 226              		.loc 1 330 0
 227 0072 7B68     		ldr	r3, [r7, #4]
 228 0074 1B68     		ldr	r3, [r3]
 229 0076 7A68     		ldr	r2, [r7, #4]
 230 0078 1268     		ldr	r2, [r2]
 231 007a 9268     		ldr	r2, [r2, #8]
 232 007c 22F02202 		bic	r2, r2, #34
 233 0080 9A60     		str	r2, [r3, #8]
 331:Drivers/STM32L4xx_HAL_Driver/Src/stm32l4xx_hal_uart.c **** 
 332:Drivers/STM32L4xx_HAL_Driver/Src/stm32l4xx_hal_uart.c ****   /* Enable the Half-Duplex mode by setting the HDSEL bit in the CR3 register */
 333:Drivers/STM32L4xx_HAL_Driver/Src/stm32l4xx_hal_uart.c ****   SET_BIT(huart->Instance->CR3, USART_CR3_HDSEL);
 234              		.loc 1 333 0
 235 0082 7B68     		ldr	r3, [r7, #4]
 236 0084 1B68     		ldr	r3, [r3]
 237 0086 7A68     		ldr	r2, [r7, #4]
 238 0088 1268     		ldr	r2, [r2]
 239 008a 9268     		ldr	r2, [r2, #8]
 240 008c 42F00802 		orr	r2, r2, #8
ARM GAS  /tmp/ccMdFX4h.s 			page 11


 241 0090 9A60     		str	r2, [r3, #8]
 334:Drivers/STM32L4xx_HAL_Driver/Src/stm32l4xx_hal_uart.c **** 
 335:Drivers/STM32L4xx_HAL_Driver/Src/stm32l4xx_hal_uart.c ****   /* Enable the Peripheral */
 336:Drivers/STM32L4xx_HAL_Driver/Src/stm32l4xx_hal_uart.c ****   __HAL_UART_ENABLE(huart);
 242              		.loc 1 336 0
 243 0092 7B68     		ldr	r3, [r7, #4]
 244 0094 1B68     		ldr	r3, [r3]
 245 0096 7A68     		ldr	r2, [r7, #4]
 246 0098 1268     		ldr	r2, [r2]
 247 009a 1268     		ldr	r2, [r2]
 248 009c 42F00102 		orr	r2, r2, #1
 249 00a0 1A60     		str	r2, [r3]
 337:Drivers/STM32L4xx_HAL_Driver/Src/stm32l4xx_hal_uart.c **** 
 338:Drivers/STM32L4xx_HAL_Driver/Src/stm32l4xx_hal_uart.c ****   /* TEACK and/or REACK to check before moving huart->gState and huart->RxState to Ready */
 339:Drivers/STM32L4xx_HAL_Driver/Src/stm32l4xx_hal_uart.c ****   return (UART_CheckIdleState(huart));
 250              		.loc 1 339 0
 251 00a2 7868     		ldr	r0, [r7, #4]
 252 00a4 FFF7FEFF 		bl	UART_CheckIdleState
 253 00a8 0346     		mov	r3, r0
 254              	.L9:
 340:Drivers/STM32L4xx_HAL_Driver/Src/stm32l4xx_hal_uart.c **** }
 255              		.loc 1 340 0
 256 00aa 1846     		mov	r0, r3
 257 00ac 0837     		adds	r7, r7, #8
 258              	.LCFI8:
 259              		.cfi_def_cfa_offset 8
 260 00ae BD46     		mov	sp, r7
 261              	.LCFI9:
 262              		.cfi_def_cfa_register 13
 263              		@ sp needed
 264 00b0 80BD     		pop	{r7, pc}
 265              		.cfi_endproc
 266              	.LFE127:
 268              		.section	.text.HAL_LIN_Init,"ax",%progbits
 269              		.align	1
 270              		.global	HAL_LIN_Init
 271              		.syntax unified
 272              		.thumb
 273              		.thumb_func
 274              		.fpu fpv4-sp-d16
 276              	HAL_LIN_Init:
 277              	.LFB128:
 341:Drivers/STM32L4xx_HAL_Driver/Src/stm32l4xx_hal_uart.c **** 
 342:Drivers/STM32L4xx_HAL_Driver/Src/stm32l4xx_hal_uart.c **** 
 343:Drivers/STM32L4xx_HAL_Driver/Src/stm32l4xx_hal_uart.c **** /**
 344:Drivers/STM32L4xx_HAL_Driver/Src/stm32l4xx_hal_uart.c ****   * @brief Initialize the LIN mode according to the specified
 345:Drivers/STM32L4xx_HAL_Driver/Src/stm32l4xx_hal_uart.c ****   *        parameters in the UART_InitTypeDef and creates the associated handle .
 346:Drivers/STM32L4xx_HAL_Driver/Src/stm32l4xx_hal_uart.c ****   * @param huart: UART handle.
 347:Drivers/STM32L4xx_HAL_Driver/Src/stm32l4xx_hal_uart.c ****   * @param BreakDetectLength: specifies the LIN break detection length.
 348:Drivers/STM32L4xx_HAL_Driver/Src/stm32l4xx_hal_uart.c ****   *        This parameter can be one of the following values:
 349:Drivers/STM32L4xx_HAL_Driver/Src/stm32l4xx_hal_uart.c ****   *          @arg @ref UART_LINBREAKDETECTLENGTH_10B 10-bit break detection
 350:Drivers/STM32L4xx_HAL_Driver/Src/stm32l4xx_hal_uart.c ****   *          @arg @ref UART_LINBREAKDETECTLENGTH_11B 11-bit break detection
 351:Drivers/STM32L4xx_HAL_Driver/Src/stm32l4xx_hal_uart.c ****   * @retval HAL status
 352:Drivers/STM32L4xx_HAL_Driver/Src/stm32l4xx_hal_uart.c ****   */
 353:Drivers/STM32L4xx_HAL_Driver/Src/stm32l4xx_hal_uart.c **** HAL_StatusTypeDef HAL_LIN_Init(UART_HandleTypeDef *huart, uint32_t BreakDetectLength)
 354:Drivers/STM32L4xx_HAL_Driver/Src/stm32l4xx_hal_uart.c **** {
 278              		.loc 1 354 0
ARM GAS  /tmp/ccMdFX4h.s 			page 12


 279              		.cfi_startproc
 280              		@ args = 0, pretend = 0, frame = 8
 281              		@ frame_needed = 1, uses_anonymous_args = 0
 282 0000 80B5     		push	{r7, lr}
 283              	.LCFI10:
 284              		.cfi_def_cfa_offset 8
 285              		.cfi_offset 7, -8
 286              		.cfi_offset 14, -4
 287 0002 82B0     		sub	sp, sp, #8
 288              	.LCFI11:
 289              		.cfi_def_cfa_offset 16
 290 0004 00AF     		add	r7, sp, #0
 291              	.LCFI12:
 292              		.cfi_def_cfa_register 7
 293 0006 7860     		str	r0, [r7, #4]
 294 0008 3960     		str	r1, [r7]
 355:Drivers/STM32L4xx_HAL_Driver/Src/stm32l4xx_hal_uart.c ****   /* Check the UART handle allocation */
 356:Drivers/STM32L4xx_HAL_Driver/Src/stm32l4xx_hal_uart.c ****   if(huart == NULL)
 295              		.loc 1 356 0
 296 000a 7B68     		ldr	r3, [r7, #4]
 297 000c 002B     		cmp	r3, #0
 298 000e 01D1     		bne	.L14
 357:Drivers/STM32L4xx_HAL_Driver/Src/stm32l4xx_hal_uart.c ****   {
 358:Drivers/STM32L4xx_HAL_Driver/Src/stm32l4xx_hal_uart.c ****     return HAL_ERROR;
 299              		.loc 1 358 0
 300 0010 0123     		movs	r3, #1
 301 0012 62E0     		b	.L15
 302              	.L14:
 359:Drivers/STM32L4xx_HAL_Driver/Src/stm32l4xx_hal_uart.c ****   }
 360:Drivers/STM32L4xx_HAL_Driver/Src/stm32l4xx_hal_uart.c **** 
 361:Drivers/STM32L4xx_HAL_Driver/Src/stm32l4xx_hal_uart.c ****   /* Check the LIN UART instance */
 362:Drivers/STM32L4xx_HAL_Driver/Src/stm32l4xx_hal_uart.c ****   assert_param(IS_UART_LIN_INSTANCE(huart->Instance));
 363:Drivers/STM32L4xx_HAL_Driver/Src/stm32l4xx_hal_uart.c ****   /* Check the Break detection length parameter */
 364:Drivers/STM32L4xx_HAL_Driver/Src/stm32l4xx_hal_uart.c ****   assert_param(IS_UART_LIN_BREAK_DETECT_LENGTH(BreakDetectLength));
 365:Drivers/STM32L4xx_HAL_Driver/Src/stm32l4xx_hal_uart.c **** 
 366:Drivers/STM32L4xx_HAL_Driver/Src/stm32l4xx_hal_uart.c ****   /* LIN mode limited to 16-bit oversampling only */
 367:Drivers/STM32L4xx_HAL_Driver/Src/stm32l4xx_hal_uart.c ****   if(huart->Init.OverSampling == UART_OVERSAMPLING_8)
 303              		.loc 1 367 0
 304 0014 7B68     		ldr	r3, [r7, #4]
 305 0016 DB69     		ldr	r3, [r3, #28]
 306 0018 B3F5004F 		cmp	r3, #32768
 307 001c 01D1     		bne	.L16
 368:Drivers/STM32L4xx_HAL_Driver/Src/stm32l4xx_hal_uart.c ****   {
 369:Drivers/STM32L4xx_HAL_Driver/Src/stm32l4xx_hal_uart.c ****     return HAL_ERROR;
 308              		.loc 1 369 0
 309 001e 0123     		movs	r3, #1
 310 0020 5BE0     		b	.L15
 311              	.L16:
 370:Drivers/STM32L4xx_HAL_Driver/Src/stm32l4xx_hal_uart.c ****   }
 371:Drivers/STM32L4xx_HAL_Driver/Src/stm32l4xx_hal_uart.c ****   /* LIN mode limited to 8-bit data length */
 372:Drivers/STM32L4xx_HAL_Driver/Src/stm32l4xx_hal_uart.c ****   if(huart->Init.WordLength != UART_WORDLENGTH_8B)
 312              		.loc 1 372 0
 313 0022 7B68     		ldr	r3, [r7, #4]
 314 0024 9B68     		ldr	r3, [r3, #8]
 315 0026 002B     		cmp	r3, #0
 316 0028 01D0     		beq	.L17
 373:Drivers/STM32L4xx_HAL_Driver/Src/stm32l4xx_hal_uart.c ****   {
ARM GAS  /tmp/ccMdFX4h.s 			page 13


 374:Drivers/STM32L4xx_HAL_Driver/Src/stm32l4xx_hal_uart.c ****     return HAL_ERROR;
 317              		.loc 1 374 0
 318 002a 0123     		movs	r3, #1
 319 002c 55E0     		b	.L15
 320              	.L17:
 375:Drivers/STM32L4xx_HAL_Driver/Src/stm32l4xx_hal_uart.c ****   }
 376:Drivers/STM32L4xx_HAL_Driver/Src/stm32l4xx_hal_uart.c **** 
 377:Drivers/STM32L4xx_HAL_Driver/Src/stm32l4xx_hal_uart.c ****   if(huart->gState == HAL_UART_STATE_RESET)
 321              		.loc 1 377 0
 322 002e 7B68     		ldr	r3, [r7, #4]
 323 0030 93F86930 		ldrb	r3, [r3, #105]
 324 0034 DBB2     		uxtb	r3, r3
 325 0036 002B     		cmp	r3, #0
 326 0038 06D1     		bne	.L18
 378:Drivers/STM32L4xx_HAL_Driver/Src/stm32l4xx_hal_uart.c ****   {
 379:Drivers/STM32L4xx_HAL_Driver/Src/stm32l4xx_hal_uart.c ****     /* Allocate lock resource and initialize it */
 380:Drivers/STM32L4xx_HAL_Driver/Src/stm32l4xx_hal_uart.c ****     huart->Lock = HAL_UNLOCKED;
 327              		.loc 1 380 0
 328 003a 7B68     		ldr	r3, [r7, #4]
 329 003c 0022     		movs	r2, #0
 330 003e 83F86820 		strb	r2, [r3, #104]
 381:Drivers/STM32L4xx_HAL_Driver/Src/stm32l4xx_hal_uart.c **** 
 382:Drivers/STM32L4xx_HAL_Driver/Src/stm32l4xx_hal_uart.c ****     /* Init the low level hardware : GPIO, CLOCK */
 383:Drivers/STM32L4xx_HAL_Driver/Src/stm32l4xx_hal_uart.c ****     HAL_UART_MspInit(huart);
 331              		.loc 1 383 0
 332 0042 7868     		ldr	r0, [r7, #4]
 333 0044 FFF7FEFF 		bl	HAL_UART_MspInit
 334              	.L18:
 384:Drivers/STM32L4xx_HAL_Driver/Src/stm32l4xx_hal_uart.c ****   }
 385:Drivers/STM32L4xx_HAL_Driver/Src/stm32l4xx_hal_uart.c **** 
 386:Drivers/STM32L4xx_HAL_Driver/Src/stm32l4xx_hal_uart.c ****   huart->gState = HAL_UART_STATE_BUSY;
 335              		.loc 1 386 0
 336 0048 7B68     		ldr	r3, [r7, #4]
 337 004a 2422     		movs	r2, #36
 338 004c 83F86920 		strb	r2, [r3, #105]
 387:Drivers/STM32L4xx_HAL_Driver/Src/stm32l4xx_hal_uart.c **** 
 388:Drivers/STM32L4xx_HAL_Driver/Src/stm32l4xx_hal_uart.c ****   /* Disable the Peripheral */
 389:Drivers/STM32L4xx_HAL_Driver/Src/stm32l4xx_hal_uart.c ****   __HAL_UART_DISABLE(huart);
 339              		.loc 1 389 0
 340 0050 7B68     		ldr	r3, [r7, #4]
 341 0052 1B68     		ldr	r3, [r3]
 342 0054 7A68     		ldr	r2, [r7, #4]
 343 0056 1268     		ldr	r2, [r2]
 344 0058 1268     		ldr	r2, [r2]
 345 005a 22F00102 		bic	r2, r2, #1
 346 005e 1A60     		str	r2, [r3]
 390:Drivers/STM32L4xx_HAL_Driver/Src/stm32l4xx_hal_uart.c **** 
 391:Drivers/STM32L4xx_HAL_Driver/Src/stm32l4xx_hal_uart.c ****   /* Set the UART Communication parameters */
 392:Drivers/STM32L4xx_HAL_Driver/Src/stm32l4xx_hal_uart.c ****   if (UART_SetConfig(huart) == HAL_ERROR)
 347              		.loc 1 392 0
 348 0060 7868     		ldr	r0, [r7, #4]
 349 0062 FFF7FEFF 		bl	UART_SetConfig
 350 0066 0346     		mov	r3, r0
 351 0068 012B     		cmp	r3, #1
 352 006a 01D1     		bne	.L19
 393:Drivers/STM32L4xx_HAL_Driver/Src/stm32l4xx_hal_uart.c ****   {
 394:Drivers/STM32L4xx_HAL_Driver/Src/stm32l4xx_hal_uart.c ****     return HAL_ERROR;
ARM GAS  /tmp/ccMdFX4h.s 			page 14


 353              		.loc 1 394 0
 354 006c 0123     		movs	r3, #1
 355 006e 34E0     		b	.L15
 356              	.L19:
 395:Drivers/STM32L4xx_HAL_Driver/Src/stm32l4xx_hal_uart.c ****   }
 396:Drivers/STM32L4xx_HAL_Driver/Src/stm32l4xx_hal_uart.c **** 
 397:Drivers/STM32L4xx_HAL_Driver/Src/stm32l4xx_hal_uart.c ****   if (huart->AdvancedInit.AdvFeatureInit != UART_ADVFEATURE_NO_INIT)
 357              		.loc 1 397 0
 358 0070 7B68     		ldr	r3, [r7, #4]
 359 0072 5B6A     		ldr	r3, [r3, #36]
 360 0074 002B     		cmp	r3, #0
 361 0076 02D0     		beq	.L20
 398:Drivers/STM32L4xx_HAL_Driver/Src/stm32l4xx_hal_uart.c ****   {
 399:Drivers/STM32L4xx_HAL_Driver/Src/stm32l4xx_hal_uart.c ****     UART_AdvFeatureConfig(huart);
 362              		.loc 1 399 0
 363 0078 7868     		ldr	r0, [r7, #4]
 364 007a FFF7FEFF 		bl	UART_AdvFeatureConfig
 365              	.L20:
 400:Drivers/STM32L4xx_HAL_Driver/Src/stm32l4xx_hal_uart.c ****   }
 401:Drivers/STM32L4xx_HAL_Driver/Src/stm32l4xx_hal_uart.c **** 
 402:Drivers/STM32L4xx_HAL_Driver/Src/stm32l4xx_hal_uart.c ****   /* In LIN mode, the following bits must be kept cleared:
 403:Drivers/STM32L4xx_HAL_Driver/Src/stm32l4xx_hal_uart.c ****   - LINEN and CLKEN bits in the USART_CR2 register,
 404:Drivers/STM32L4xx_HAL_Driver/Src/stm32l4xx_hal_uart.c ****   - SCEN and IREN bits in the USART_CR3 register.*/
 405:Drivers/STM32L4xx_HAL_Driver/Src/stm32l4xx_hal_uart.c ****   CLEAR_BIT(huart->Instance->CR2, USART_CR2_CLKEN);
 366              		.loc 1 405 0
 367 007e 7B68     		ldr	r3, [r7, #4]
 368 0080 1B68     		ldr	r3, [r3]
 369 0082 7A68     		ldr	r2, [r7, #4]
 370 0084 1268     		ldr	r2, [r2]
 371 0086 5268     		ldr	r2, [r2, #4]
 372 0088 22F40062 		bic	r2, r2, #2048
 373 008c 5A60     		str	r2, [r3, #4]
 406:Drivers/STM32L4xx_HAL_Driver/Src/stm32l4xx_hal_uart.c ****   CLEAR_BIT(huart->Instance->CR3, (USART_CR3_HDSEL | USART_CR3_IREN | USART_CR3_SCEN));
 374              		.loc 1 406 0
 375 008e 7B68     		ldr	r3, [r7, #4]
 376 0090 1B68     		ldr	r3, [r3]
 377 0092 7A68     		ldr	r2, [r7, #4]
 378 0094 1268     		ldr	r2, [r2]
 379 0096 9268     		ldr	r2, [r2, #8]
 380 0098 22F02A02 		bic	r2, r2, #42
 381 009c 9A60     		str	r2, [r3, #8]
 407:Drivers/STM32L4xx_HAL_Driver/Src/stm32l4xx_hal_uart.c **** 
 408:Drivers/STM32L4xx_HAL_Driver/Src/stm32l4xx_hal_uart.c ****   /* Enable the LIN mode by setting the LINEN bit in the CR2 register */
 409:Drivers/STM32L4xx_HAL_Driver/Src/stm32l4xx_hal_uart.c ****   SET_BIT(huart->Instance->CR2, USART_CR2_LINEN);
 382              		.loc 1 409 0
 383 009e 7B68     		ldr	r3, [r7, #4]
 384 00a0 1B68     		ldr	r3, [r3]
 385 00a2 7A68     		ldr	r2, [r7, #4]
 386 00a4 1268     		ldr	r2, [r2]
 387 00a6 5268     		ldr	r2, [r2, #4]
 388 00a8 42F48042 		orr	r2, r2, #16384
 389 00ac 5A60     		str	r2, [r3, #4]
 410:Drivers/STM32L4xx_HAL_Driver/Src/stm32l4xx_hal_uart.c **** 
 411:Drivers/STM32L4xx_HAL_Driver/Src/stm32l4xx_hal_uart.c ****   /* Set the USART LIN Break detection length. */
 412:Drivers/STM32L4xx_HAL_Driver/Src/stm32l4xx_hal_uart.c ****   MODIFY_REG(huart->Instance->CR2, USART_CR2_LBDL, BreakDetectLength);
 390              		.loc 1 412 0
 391 00ae 7B68     		ldr	r3, [r7, #4]
ARM GAS  /tmp/ccMdFX4h.s 			page 15


 392 00b0 1B68     		ldr	r3, [r3]
 393 00b2 7A68     		ldr	r2, [r7, #4]
 394 00b4 1268     		ldr	r2, [r2]
 395 00b6 5268     		ldr	r2, [r2, #4]
 396 00b8 22F02001 		bic	r1, r2, #32
 397 00bc 3A68     		ldr	r2, [r7]
 398 00be 0A43     		orrs	r2, r2, r1
 399 00c0 5A60     		str	r2, [r3, #4]
 413:Drivers/STM32L4xx_HAL_Driver/Src/stm32l4xx_hal_uart.c **** 
 414:Drivers/STM32L4xx_HAL_Driver/Src/stm32l4xx_hal_uart.c ****   /* Enable the Peripheral */
 415:Drivers/STM32L4xx_HAL_Driver/Src/stm32l4xx_hal_uart.c ****   __HAL_UART_ENABLE(huart);
 400              		.loc 1 415 0
 401 00c2 7B68     		ldr	r3, [r7, #4]
 402 00c4 1B68     		ldr	r3, [r3]
 403 00c6 7A68     		ldr	r2, [r7, #4]
 404 00c8 1268     		ldr	r2, [r2]
 405 00ca 1268     		ldr	r2, [r2]
 406 00cc 42F00102 		orr	r2, r2, #1
 407 00d0 1A60     		str	r2, [r3]
 416:Drivers/STM32L4xx_HAL_Driver/Src/stm32l4xx_hal_uart.c **** 
 417:Drivers/STM32L4xx_HAL_Driver/Src/stm32l4xx_hal_uart.c ****   /* TEACK and/or REACK to check before moving huart->gState and huart->RxState to Ready */
 418:Drivers/STM32L4xx_HAL_Driver/Src/stm32l4xx_hal_uart.c ****   return (UART_CheckIdleState(huart));
 408              		.loc 1 418 0
 409 00d2 7868     		ldr	r0, [r7, #4]
 410 00d4 FFF7FEFF 		bl	UART_CheckIdleState
 411 00d8 0346     		mov	r3, r0
 412              	.L15:
 419:Drivers/STM32L4xx_HAL_Driver/Src/stm32l4xx_hal_uart.c **** }
 413              		.loc 1 419 0
 414 00da 1846     		mov	r0, r3
 415 00dc 0837     		adds	r7, r7, #8
 416              	.LCFI13:
 417              		.cfi_def_cfa_offset 8
 418 00de BD46     		mov	sp, r7
 419              	.LCFI14:
 420              		.cfi_def_cfa_register 13
 421              		@ sp needed
 422 00e0 80BD     		pop	{r7, pc}
 423              		.cfi_endproc
 424              	.LFE128:
 426              		.section	.text.HAL_MultiProcessor_Init,"ax",%progbits
 427              		.align	1
 428              		.global	HAL_MultiProcessor_Init
 429              		.syntax unified
 430              		.thumb
 431              		.thumb_func
 432              		.fpu fpv4-sp-d16
 434              	HAL_MultiProcessor_Init:
 435              	.LFB129:
 420:Drivers/STM32L4xx_HAL_Driver/Src/stm32l4xx_hal_uart.c **** 
 421:Drivers/STM32L4xx_HAL_Driver/Src/stm32l4xx_hal_uart.c **** 
 422:Drivers/STM32L4xx_HAL_Driver/Src/stm32l4xx_hal_uart.c **** /**
 423:Drivers/STM32L4xx_HAL_Driver/Src/stm32l4xx_hal_uart.c ****   * @brief Initialize the multiprocessor mode according to the specified
 424:Drivers/STM32L4xx_HAL_Driver/Src/stm32l4xx_hal_uart.c ****   *        parameters in the UART_InitTypeDef and initialize the associated handle.
 425:Drivers/STM32L4xx_HAL_Driver/Src/stm32l4xx_hal_uart.c ****   * @param huart: UART handle.
 426:Drivers/STM32L4xx_HAL_Driver/Src/stm32l4xx_hal_uart.c ****   * @param Address: UART node address (4-, 6-, 7- or 8-bit long).
 427:Drivers/STM32L4xx_HAL_Driver/Src/stm32l4xx_hal_uart.c ****   * @param WakeUpMethod: specifies the UART wakeup method.
ARM GAS  /tmp/ccMdFX4h.s 			page 16


 428:Drivers/STM32L4xx_HAL_Driver/Src/stm32l4xx_hal_uart.c ****   *        This parameter can be one of the following values:
 429:Drivers/STM32L4xx_HAL_Driver/Src/stm32l4xx_hal_uart.c ****   *          @arg @ref UART_WAKEUPMETHOD_IDLELINE WakeUp by an idle line detection
 430:Drivers/STM32L4xx_HAL_Driver/Src/stm32l4xx_hal_uart.c ****   *          @arg @ref UART_WAKEUPMETHOD_ADDRESSMARK WakeUp by an address mark
 431:Drivers/STM32L4xx_HAL_Driver/Src/stm32l4xx_hal_uart.c ****   * @note  If the user resorts to idle line detection wake up, the Address parameter
 432:Drivers/STM32L4xx_HAL_Driver/Src/stm32l4xx_hal_uart.c ****   *        is useless and ignored by the initialization function.
 433:Drivers/STM32L4xx_HAL_Driver/Src/stm32l4xx_hal_uart.c ****   * @note  If the user resorts to address mark wake up, the address length detection
 434:Drivers/STM32L4xx_HAL_Driver/Src/stm32l4xx_hal_uart.c ****   *        is configured by default to 4 bits only. For the UART to be able to
 435:Drivers/STM32L4xx_HAL_Driver/Src/stm32l4xx_hal_uart.c ****   *        manage 6-, 7- or 8-bit long addresses detection, the API
 436:Drivers/STM32L4xx_HAL_Driver/Src/stm32l4xx_hal_uart.c ****   *        HAL_MultiProcessorEx_AddressLength_Set() must be called after
 437:Drivers/STM32L4xx_HAL_Driver/Src/stm32l4xx_hal_uart.c ****   *        HAL_MultiProcessor_Init().
 438:Drivers/STM32L4xx_HAL_Driver/Src/stm32l4xx_hal_uart.c ****   * @retval HAL status
 439:Drivers/STM32L4xx_HAL_Driver/Src/stm32l4xx_hal_uart.c ****   */
 440:Drivers/STM32L4xx_HAL_Driver/Src/stm32l4xx_hal_uart.c **** HAL_StatusTypeDef HAL_MultiProcessor_Init(UART_HandleTypeDef *huart, uint8_t Address, uint32_t Wake
 441:Drivers/STM32L4xx_HAL_Driver/Src/stm32l4xx_hal_uart.c **** {
 436              		.loc 1 441 0
 437              		.cfi_startproc
 438              		@ args = 0, pretend = 0, frame = 16
 439              		@ frame_needed = 1, uses_anonymous_args = 0
 440 0000 80B5     		push	{r7, lr}
 441              	.LCFI15:
 442              		.cfi_def_cfa_offset 8
 443              		.cfi_offset 7, -8
 444              		.cfi_offset 14, -4
 445 0002 84B0     		sub	sp, sp, #16
 446              	.LCFI16:
 447              		.cfi_def_cfa_offset 24
 448 0004 00AF     		add	r7, sp, #0
 449              	.LCFI17:
 450              		.cfi_def_cfa_register 7
 451 0006 F860     		str	r0, [r7, #12]
 452 0008 0B46     		mov	r3, r1
 453 000a 7A60     		str	r2, [r7, #4]
 454 000c FB72     		strb	r3, [r7, #11]
 442:Drivers/STM32L4xx_HAL_Driver/Src/stm32l4xx_hal_uart.c ****   /* Check the UART handle allocation */
 443:Drivers/STM32L4xx_HAL_Driver/Src/stm32l4xx_hal_uart.c ****   if(huart == NULL)
 455              		.loc 1 443 0
 456 000e FB68     		ldr	r3, [r7, #12]
 457 0010 002B     		cmp	r3, #0
 458 0012 01D1     		bne	.L22
 444:Drivers/STM32L4xx_HAL_Driver/Src/stm32l4xx_hal_uart.c ****   {
 445:Drivers/STM32L4xx_HAL_Driver/Src/stm32l4xx_hal_uart.c ****     return HAL_ERROR;
 459              		.loc 1 445 0
 460 0014 0123     		movs	r3, #1
 461 0016 5CE0     		b	.L23
 462              	.L22:
 446:Drivers/STM32L4xx_HAL_Driver/Src/stm32l4xx_hal_uart.c ****   }
 447:Drivers/STM32L4xx_HAL_Driver/Src/stm32l4xx_hal_uart.c **** 
 448:Drivers/STM32L4xx_HAL_Driver/Src/stm32l4xx_hal_uart.c ****   /* Check the wake up method parameter */
 449:Drivers/STM32L4xx_HAL_Driver/Src/stm32l4xx_hal_uart.c ****   assert_param(IS_UART_WAKEUPMETHOD(WakeUpMethod));
 450:Drivers/STM32L4xx_HAL_Driver/Src/stm32l4xx_hal_uart.c **** 
 451:Drivers/STM32L4xx_HAL_Driver/Src/stm32l4xx_hal_uart.c ****   if(huart->gState == HAL_UART_STATE_RESET)
 463              		.loc 1 451 0
 464 0018 FB68     		ldr	r3, [r7, #12]
 465 001a 93F86930 		ldrb	r3, [r3, #105]
 466 001e DBB2     		uxtb	r3, r3
 467 0020 002B     		cmp	r3, #0
 468 0022 06D1     		bne	.L24
ARM GAS  /tmp/ccMdFX4h.s 			page 17


 452:Drivers/STM32L4xx_HAL_Driver/Src/stm32l4xx_hal_uart.c ****   {
 453:Drivers/STM32L4xx_HAL_Driver/Src/stm32l4xx_hal_uart.c ****     /* Allocate lock resource and initialize it */
 454:Drivers/STM32L4xx_HAL_Driver/Src/stm32l4xx_hal_uart.c ****     huart->Lock = HAL_UNLOCKED;
 469              		.loc 1 454 0
 470 0024 FB68     		ldr	r3, [r7, #12]
 471 0026 0022     		movs	r2, #0
 472 0028 83F86820 		strb	r2, [r3, #104]
 455:Drivers/STM32L4xx_HAL_Driver/Src/stm32l4xx_hal_uart.c **** 
 456:Drivers/STM32L4xx_HAL_Driver/Src/stm32l4xx_hal_uart.c ****     /* Init the low level hardware : GPIO, CLOCK */
 457:Drivers/STM32L4xx_HAL_Driver/Src/stm32l4xx_hal_uart.c ****     HAL_UART_MspInit(huart);
 473              		.loc 1 457 0
 474 002c F868     		ldr	r0, [r7, #12]
 475 002e FFF7FEFF 		bl	HAL_UART_MspInit
 476              	.L24:
 458:Drivers/STM32L4xx_HAL_Driver/Src/stm32l4xx_hal_uart.c ****   }
 459:Drivers/STM32L4xx_HAL_Driver/Src/stm32l4xx_hal_uart.c **** 
 460:Drivers/STM32L4xx_HAL_Driver/Src/stm32l4xx_hal_uart.c ****   huart->gState = HAL_UART_STATE_BUSY;
 477              		.loc 1 460 0
 478 0032 FB68     		ldr	r3, [r7, #12]
 479 0034 2422     		movs	r2, #36
 480 0036 83F86920 		strb	r2, [r3, #105]
 461:Drivers/STM32L4xx_HAL_Driver/Src/stm32l4xx_hal_uart.c **** 
 462:Drivers/STM32L4xx_HAL_Driver/Src/stm32l4xx_hal_uart.c ****   /* Disable the Peripheral */
 463:Drivers/STM32L4xx_HAL_Driver/Src/stm32l4xx_hal_uart.c ****   __HAL_UART_DISABLE(huart);
 481              		.loc 1 463 0
 482 003a FB68     		ldr	r3, [r7, #12]
 483 003c 1B68     		ldr	r3, [r3]
 484 003e FA68     		ldr	r2, [r7, #12]
 485 0040 1268     		ldr	r2, [r2]
 486 0042 1268     		ldr	r2, [r2]
 487 0044 22F00102 		bic	r2, r2, #1
 488 0048 1A60     		str	r2, [r3]
 464:Drivers/STM32L4xx_HAL_Driver/Src/stm32l4xx_hal_uart.c **** 
 465:Drivers/STM32L4xx_HAL_Driver/Src/stm32l4xx_hal_uart.c ****   /* Set the UART Communication parameters */
 466:Drivers/STM32L4xx_HAL_Driver/Src/stm32l4xx_hal_uart.c ****   if (UART_SetConfig(huart) == HAL_ERROR)
 489              		.loc 1 466 0
 490 004a F868     		ldr	r0, [r7, #12]
 491 004c FFF7FEFF 		bl	UART_SetConfig
 492 0050 0346     		mov	r3, r0
 493 0052 012B     		cmp	r3, #1
 494 0054 01D1     		bne	.L25
 467:Drivers/STM32L4xx_HAL_Driver/Src/stm32l4xx_hal_uart.c ****   {
 468:Drivers/STM32L4xx_HAL_Driver/Src/stm32l4xx_hal_uart.c ****     return HAL_ERROR;
 495              		.loc 1 468 0
 496 0056 0123     		movs	r3, #1
 497 0058 3BE0     		b	.L23
 498              	.L25:
 469:Drivers/STM32L4xx_HAL_Driver/Src/stm32l4xx_hal_uart.c ****   }
 470:Drivers/STM32L4xx_HAL_Driver/Src/stm32l4xx_hal_uart.c **** 
 471:Drivers/STM32L4xx_HAL_Driver/Src/stm32l4xx_hal_uart.c ****   if (huart->AdvancedInit.AdvFeatureInit != UART_ADVFEATURE_NO_INIT)
 499              		.loc 1 471 0
 500 005a FB68     		ldr	r3, [r7, #12]
 501 005c 5B6A     		ldr	r3, [r3, #36]
 502 005e 002B     		cmp	r3, #0
 503 0060 02D0     		beq	.L26
 472:Drivers/STM32L4xx_HAL_Driver/Src/stm32l4xx_hal_uart.c ****   {
 473:Drivers/STM32L4xx_HAL_Driver/Src/stm32l4xx_hal_uart.c ****     UART_AdvFeatureConfig(huart);
ARM GAS  /tmp/ccMdFX4h.s 			page 18


 504              		.loc 1 473 0
 505 0062 F868     		ldr	r0, [r7, #12]
 506 0064 FFF7FEFF 		bl	UART_AdvFeatureConfig
 507              	.L26:
 474:Drivers/STM32L4xx_HAL_Driver/Src/stm32l4xx_hal_uart.c ****   }
 475:Drivers/STM32L4xx_HAL_Driver/Src/stm32l4xx_hal_uart.c **** 
 476:Drivers/STM32L4xx_HAL_Driver/Src/stm32l4xx_hal_uart.c ****   /* In multiprocessor mode, the following bits must be kept cleared:
 477:Drivers/STM32L4xx_HAL_Driver/Src/stm32l4xx_hal_uart.c ****   - LINEN and CLKEN bits in the USART_CR2 register,
 478:Drivers/STM32L4xx_HAL_Driver/Src/stm32l4xx_hal_uart.c ****   - SCEN, HDSEL and IREN  bits in the USART_CR3 register. */
 479:Drivers/STM32L4xx_HAL_Driver/Src/stm32l4xx_hal_uart.c ****   CLEAR_BIT(huart->Instance->CR2, (USART_CR2_LINEN | USART_CR2_CLKEN));
 508              		.loc 1 479 0
 509 0068 FB68     		ldr	r3, [r7, #12]
 510 006a 1B68     		ldr	r3, [r3]
 511 006c FA68     		ldr	r2, [r7, #12]
 512 006e 1268     		ldr	r2, [r2]
 513 0070 5268     		ldr	r2, [r2, #4]
 514 0072 22F49042 		bic	r2, r2, #18432
 515 0076 5A60     		str	r2, [r3, #4]
 480:Drivers/STM32L4xx_HAL_Driver/Src/stm32l4xx_hal_uart.c ****   CLEAR_BIT(huart->Instance->CR3, (USART_CR3_SCEN | USART_CR3_HDSEL | USART_CR3_IREN));
 516              		.loc 1 480 0
 517 0078 FB68     		ldr	r3, [r7, #12]
 518 007a 1B68     		ldr	r3, [r3]
 519 007c FA68     		ldr	r2, [r7, #12]
 520 007e 1268     		ldr	r2, [r2]
 521 0080 9268     		ldr	r2, [r2, #8]
 522 0082 22F02A02 		bic	r2, r2, #42
 523 0086 9A60     		str	r2, [r3, #8]
 481:Drivers/STM32L4xx_HAL_Driver/Src/stm32l4xx_hal_uart.c **** 
 482:Drivers/STM32L4xx_HAL_Driver/Src/stm32l4xx_hal_uart.c ****   if (WakeUpMethod == UART_WAKEUPMETHOD_ADDRESSMARK)
 524              		.loc 1 482 0
 525 0088 7B68     		ldr	r3, [r7, #4]
 526 008a B3F5006F 		cmp	r3, #2048
 527 008e 0AD1     		bne	.L27
 483:Drivers/STM32L4xx_HAL_Driver/Src/stm32l4xx_hal_uart.c ****   {
 484:Drivers/STM32L4xx_HAL_Driver/Src/stm32l4xx_hal_uart.c ****     /* If address mark wake up method is chosen, set the USART address node */
 485:Drivers/STM32L4xx_HAL_Driver/Src/stm32l4xx_hal_uart.c ****     MODIFY_REG(huart->Instance->CR2, USART_CR2_ADD, ((uint32_t)Address << UART_CR2_ADDRESS_LSB_POS)
 528              		.loc 1 485 0
 529 0090 FB68     		ldr	r3, [r7, #12]
 530 0092 1B68     		ldr	r3, [r3]
 531 0094 FA68     		ldr	r2, [r7, #12]
 532 0096 1268     		ldr	r2, [r2]
 533 0098 5268     		ldr	r2, [r2, #4]
 534 009a 22F07F41 		bic	r1, r2, #-16777216
 535 009e FA7A     		ldrb	r2, [r7, #11]	@ zero_extendqisi2
 536 00a0 1206     		lsls	r2, r2, #24
 537 00a2 0A43     		orrs	r2, r2, r1
 538 00a4 5A60     		str	r2, [r3, #4]
 539              	.L27:
 486:Drivers/STM32L4xx_HAL_Driver/Src/stm32l4xx_hal_uart.c ****   }
 487:Drivers/STM32L4xx_HAL_Driver/Src/stm32l4xx_hal_uart.c **** 
 488:Drivers/STM32L4xx_HAL_Driver/Src/stm32l4xx_hal_uart.c ****   /* Set the wake up method by setting the WAKE bit in the CR1 register */
 489:Drivers/STM32L4xx_HAL_Driver/Src/stm32l4xx_hal_uart.c ****   MODIFY_REG(huart->Instance->CR1, USART_CR1_WAKE, WakeUpMethod);
 540              		.loc 1 489 0
 541 00a6 FB68     		ldr	r3, [r7, #12]
 542 00a8 1B68     		ldr	r3, [r3]
 543 00aa FA68     		ldr	r2, [r7, #12]
 544 00ac 1268     		ldr	r2, [r2]
ARM GAS  /tmp/ccMdFX4h.s 			page 19


 545 00ae 1268     		ldr	r2, [r2]
 546 00b0 22F40061 		bic	r1, r2, #2048
 547 00b4 7A68     		ldr	r2, [r7, #4]
 548 00b6 0A43     		orrs	r2, r2, r1
 549 00b8 1A60     		str	r2, [r3]
 490:Drivers/STM32L4xx_HAL_Driver/Src/stm32l4xx_hal_uart.c **** 
 491:Drivers/STM32L4xx_HAL_Driver/Src/stm32l4xx_hal_uart.c ****   /* Enable the Peripheral */
 492:Drivers/STM32L4xx_HAL_Driver/Src/stm32l4xx_hal_uart.c ****   __HAL_UART_ENABLE(huart);
 550              		.loc 1 492 0
 551 00ba FB68     		ldr	r3, [r7, #12]
 552 00bc 1B68     		ldr	r3, [r3]
 553 00be FA68     		ldr	r2, [r7, #12]
 554 00c0 1268     		ldr	r2, [r2]
 555 00c2 1268     		ldr	r2, [r2]
 556 00c4 42F00102 		orr	r2, r2, #1
 557 00c8 1A60     		str	r2, [r3]
 493:Drivers/STM32L4xx_HAL_Driver/Src/stm32l4xx_hal_uart.c **** 
 494:Drivers/STM32L4xx_HAL_Driver/Src/stm32l4xx_hal_uart.c ****   /* TEACK and/or REACK to check before moving huart->gState and huart->RxState to Ready */
 495:Drivers/STM32L4xx_HAL_Driver/Src/stm32l4xx_hal_uart.c ****   return (UART_CheckIdleState(huart));
 558              		.loc 1 495 0
 559 00ca F868     		ldr	r0, [r7, #12]
 560 00cc FFF7FEFF 		bl	UART_CheckIdleState
 561 00d0 0346     		mov	r3, r0
 562              	.L23:
 496:Drivers/STM32L4xx_HAL_Driver/Src/stm32l4xx_hal_uart.c **** }
 563              		.loc 1 496 0
 564 00d2 1846     		mov	r0, r3
 565 00d4 1037     		adds	r7, r7, #16
 566              	.LCFI18:
 567              		.cfi_def_cfa_offset 8
 568 00d6 BD46     		mov	sp, r7
 569              	.LCFI19:
 570              		.cfi_def_cfa_register 13
 571              		@ sp needed
 572 00d8 80BD     		pop	{r7, pc}
 573              		.cfi_endproc
 574              	.LFE129:
 576              		.section	.text.HAL_UART_DeInit,"ax",%progbits
 577              		.align	1
 578              		.global	HAL_UART_DeInit
 579              		.syntax unified
 580              		.thumb
 581              		.thumb_func
 582              		.fpu fpv4-sp-d16
 584              	HAL_UART_DeInit:
 585              	.LFB130:
 497:Drivers/STM32L4xx_HAL_Driver/Src/stm32l4xx_hal_uart.c **** 
 498:Drivers/STM32L4xx_HAL_Driver/Src/stm32l4xx_hal_uart.c **** 
 499:Drivers/STM32L4xx_HAL_Driver/Src/stm32l4xx_hal_uart.c **** /**
 500:Drivers/STM32L4xx_HAL_Driver/Src/stm32l4xx_hal_uart.c ****   * @brief DeInitialize the UART peripheral.
 501:Drivers/STM32L4xx_HAL_Driver/Src/stm32l4xx_hal_uart.c ****   * @param huart: UART handle.
 502:Drivers/STM32L4xx_HAL_Driver/Src/stm32l4xx_hal_uart.c ****   * @retval HAL status
 503:Drivers/STM32L4xx_HAL_Driver/Src/stm32l4xx_hal_uart.c ****   */
 504:Drivers/STM32L4xx_HAL_Driver/Src/stm32l4xx_hal_uart.c **** HAL_StatusTypeDef HAL_UART_DeInit(UART_HandleTypeDef *huart)
 505:Drivers/STM32L4xx_HAL_Driver/Src/stm32l4xx_hal_uart.c **** {
 586              		.loc 1 505 0
 587              		.cfi_startproc
ARM GAS  /tmp/ccMdFX4h.s 			page 20


 588              		@ args = 0, pretend = 0, frame = 8
 589              		@ frame_needed = 1, uses_anonymous_args = 0
 590 0000 80B5     		push	{r7, lr}
 591              	.LCFI20:
 592              		.cfi_def_cfa_offset 8
 593              		.cfi_offset 7, -8
 594              		.cfi_offset 14, -4
 595 0002 82B0     		sub	sp, sp, #8
 596              	.LCFI21:
 597              		.cfi_def_cfa_offset 16
 598 0004 00AF     		add	r7, sp, #0
 599              	.LCFI22:
 600              		.cfi_def_cfa_register 7
 601 0006 7860     		str	r0, [r7, #4]
 506:Drivers/STM32L4xx_HAL_Driver/Src/stm32l4xx_hal_uart.c ****   /* Check the UART handle allocation */
 507:Drivers/STM32L4xx_HAL_Driver/Src/stm32l4xx_hal_uart.c ****   if(huart == NULL)
 602              		.loc 1 507 0
 603 0008 7B68     		ldr	r3, [r7, #4]
 604 000a 002B     		cmp	r3, #0
 605 000c 01D1     		bne	.L29
 508:Drivers/STM32L4xx_HAL_Driver/Src/stm32l4xx_hal_uart.c ****   {
 509:Drivers/STM32L4xx_HAL_Driver/Src/stm32l4xx_hal_uart.c ****     return HAL_ERROR;
 606              		.loc 1 509 0
 607 000e 0123     		movs	r3, #1
 608 0010 2AE0     		b	.L30
 609              	.L29:
 510:Drivers/STM32L4xx_HAL_Driver/Src/stm32l4xx_hal_uart.c ****   }
 511:Drivers/STM32L4xx_HAL_Driver/Src/stm32l4xx_hal_uart.c **** 
 512:Drivers/STM32L4xx_HAL_Driver/Src/stm32l4xx_hal_uart.c ****   /* Check the parameters */
 513:Drivers/STM32L4xx_HAL_Driver/Src/stm32l4xx_hal_uart.c ****   assert_param((IS_UART_INSTANCE(huart->Instance)) || (IS_LPUART_INSTANCE(huart->Instance)));
 514:Drivers/STM32L4xx_HAL_Driver/Src/stm32l4xx_hal_uart.c **** 
 515:Drivers/STM32L4xx_HAL_Driver/Src/stm32l4xx_hal_uart.c ****   huart->gState = HAL_UART_STATE_BUSY;
 610              		.loc 1 515 0
 611 0012 7B68     		ldr	r3, [r7, #4]
 612 0014 2422     		movs	r2, #36
 613 0016 83F86920 		strb	r2, [r3, #105]
 516:Drivers/STM32L4xx_HAL_Driver/Src/stm32l4xx_hal_uart.c **** 
 517:Drivers/STM32L4xx_HAL_Driver/Src/stm32l4xx_hal_uart.c ****   /* Disable the Peripheral */
 518:Drivers/STM32L4xx_HAL_Driver/Src/stm32l4xx_hal_uart.c ****   __HAL_UART_DISABLE(huart);
 614              		.loc 1 518 0
 615 001a 7B68     		ldr	r3, [r7, #4]
 616 001c 1B68     		ldr	r3, [r3]
 617 001e 7A68     		ldr	r2, [r7, #4]
 618 0020 1268     		ldr	r2, [r2]
 619 0022 1268     		ldr	r2, [r2]
 620 0024 22F00102 		bic	r2, r2, #1
 621 0028 1A60     		str	r2, [r3]
 519:Drivers/STM32L4xx_HAL_Driver/Src/stm32l4xx_hal_uart.c **** 
 520:Drivers/STM32L4xx_HAL_Driver/Src/stm32l4xx_hal_uart.c ****   huart->Instance->CR1 = 0x0;
 622              		.loc 1 520 0
 623 002a 7B68     		ldr	r3, [r7, #4]
 624 002c 1B68     		ldr	r3, [r3]
 625 002e 0022     		movs	r2, #0
 626 0030 1A60     		str	r2, [r3]
 521:Drivers/STM32L4xx_HAL_Driver/Src/stm32l4xx_hal_uart.c ****   huart->Instance->CR2 = 0x0;
 627              		.loc 1 521 0
 628 0032 7B68     		ldr	r3, [r7, #4]
ARM GAS  /tmp/ccMdFX4h.s 			page 21


 629 0034 1B68     		ldr	r3, [r3]
 630 0036 0022     		movs	r2, #0
 631 0038 5A60     		str	r2, [r3, #4]
 522:Drivers/STM32L4xx_HAL_Driver/Src/stm32l4xx_hal_uart.c ****   huart->Instance->CR3 = 0x0;
 632              		.loc 1 522 0
 633 003a 7B68     		ldr	r3, [r7, #4]
 634 003c 1B68     		ldr	r3, [r3]
 635 003e 0022     		movs	r2, #0
 636 0040 9A60     		str	r2, [r3, #8]
 523:Drivers/STM32L4xx_HAL_Driver/Src/stm32l4xx_hal_uart.c **** 
 524:Drivers/STM32L4xx_HAL_Driver/Src/stm32l4xx_hal_uart.c ****   /* DeInit the low level hardware */
 525:Drivers/STM32L4xx_HAL_Driver/Src/stm32l4xx_hal_uart.c ****   HAL_UART_MspDeInit(huart);
 637              		.loc 1 525 0
 638 0042 7868     		ldr	r0, [r7, #4]
 639 0044 FFF7FEFF 		bl	HAL_UART_MspDeInit
 526:Drivers/STM32L4xx_HAL_Driver/Src/stm32l4xx_hal_uart.c **** 
 527:Drivers/STM32L4xx_HAL_Driver/Src/stm32l4xx_hal_uart.c ****   huart->ErrorCode = HAL_UART_ERROR_NONE;
 640              		.loc 1 527 0
 641 0048 7B68     		ldr	r3, [r7, #4]
 642 004a 0022     		movs	r2, #0
 643 004c DA66     		str	r2, [r3, #108]
 528:Drivers/STM32L4xx_HAL_Driver/Src/stm32l4xx_hal_uart.c ****   huart->gState    = HAL_UART_STATE_RESET;
 644              		.loc 1 528 0
 645 004e 7B68     		ldr	r3, [r7, #4]
 646 0050 0022     		movs	r2, #0
 647 0052 83F86920 		strb	r2, [r3, #105]
 529:Drivers/STM32L4xx_HAL_Driver/Src/stm32l4xx_hal_uart.c ****   huart->RxState   = HAL_UART_STATE_RESET;
 648              		.loc 1 529 0
 649 0056 7B68     		ldr	r3, [r7, #4]
 650 0058 0022     		movs	r2, #0
 651 005a 83F86A20 		strb	r2, [r3, #106]
 530:Drivers/STM32L4xx_HAL_Driver/Src/stm32l4xx_hal_uart.c **** 
 531:Drivers/STM32L4xx_HAL_Driver/Src/stm32l4xx_hal_uart.c ****   /* Process Unlock */
 532:Drivers/STM32L4xx_HAL_Driver/Src/stm32l4xx_hal_uart.c ****   __HAL_UNLOCK(huart);
 652              		.loc 1 532 0
 653 005e 7B68     		ldr	r3, [r7, #4]
 654 0060 0022     		movs	r2, #0
 655 0062 83F86820 		strb	r2, [r3, #104]
 533:Drivers/STM32L4xx_HAL_Driver/Src/stm32l4xx_hal_uart.c **** 
 534:Drivers/STM32L4xx_HAL_Driver/Src/stm32l4xx_hal_uart.c ****   return HAL_OK;
 656              		.loc 1 534 0
 657 0066 0023     		movs	r3, #0
 658              	.L30:
 535:Drivers/STM32L4xx_HAL_Driver/Src/stm32l4xx_hal_uart.c **** }
 659              		.loc 1 535 0
 660 0068 1846     		mov	r0, r3
 661 006a 0837     		adds	r7, r7, #8
 662              	.LCFI23:
 663              		.cfi_def_cfa_offset 8
 664 006c BD46     		mov	sp, r7
 665              	.LCFI24:
 666              		.cfi_def_cfa_register 13
 667              		@ sp needed
 668 006e 80BD     		pop	{r7, pc}
 669              		.cfi_endproc
 670              	.LFE130:
 672              		.section	.text.HAL_UART_MspInit,"ax",%progbits
ARM GAS  /tmp/ccMdFX4h.s 			page 22


 673              		.align	1
 674              		.weak	HAL_UART_MspInit
 675              		.syntax unified
 676              		.thumb
 677              		.thumb_func
 678              		.fpu fpv4-sp-d16
 680              	HAL_UART_MspInit:
 681              	.LFB131:
 536:Drivers/STM32L4xx_HAL_Driver/Src/stm32l4xx_hal_uart.c **** 
 537:Drivers/STM32L4xx_HAL_Driver/Src/stm32l4xx_hal_uart.c **** /**
 538:Drivers/STM32L4xx_HAL_Driver/Src/stm32l4xx_hal_uart.c ****   * @brief Initialize the UART MSP.
 539:Drivers/STM32L4xx_HAL_Driver/Src/stm32l4xx_hal_uart.c ****   * @param huart: UART handle.
 540:Drivers/STM32L4xx_HAL_Driver/Src/stm32l4xx_hal_uart.c ****   * @retval None
 541:Drivers/STM32L4xx_HAL_Driver/Src/stm32l4xx_hal_uart.c ****   */
 542:Drivers/STM32L4xx_HAL_Driver/Src/stm32l4xx_hal_uart.c **** __weak void HAL_UART_MspInit(UART_HandleTypeDef *huart)
 543:Drivers/STM32L4xx_HAL_Driver/Src/stm32l4xx_hal_uart.c **** {
 682              		.loc 1 543 0
 683              		.cfi_startproc
 684              		@ args = 0, pretend = 0, frame = 8
 685              		@ frame_needed = 1, uses_anonymous_args = 0
 686              		@ link register save eliminated.
 687 0000 80B4     		push	{r7}
 688              	.LCFI25:
 689              		.cfi_def_cfa_offset 4
 690              		.cfi_offset 7, -4
 691 0002 83B0     		sub	sp, sp, #12
 692              	.LCFI26:
 693              		.cfi_def_cfa_offset 16
 694 0004 00AF     		add	r7, sp, #0
 695              	.LCFI27:
 696              		.cfi_def_cfa_register 7
 697 0006 7860     		str	r0, [r7, #4]
 544:Drivers/STM32L4xx_HAL_Driver/Src/stm32l4xx_hal_uart.c ****   /* Prevent unused argument(s) compilation warning */
 545:Drivers/STM32L4xx_HAL_Driver/Src/stm32l4xx_hal_uart.c ****   UNUSED(huart);
 546:Drivers/STM32L4xx_HAL_Driver/Src/stm32l4xx_hal_uart.c **** 
 547:Drivers/STM32L4xx_HAL_Driver/Src/stm32l4xx_hal_uart.c ****   /* NOTE : This function should not be modified, when the callback is needed,
 548:Drivers/STM32L4xx_HAL_Driver/Src/stm32l4xx_hal_uart.c ****             the HAL_UART_MspInit can be implemented in the user file
 549:Drivers/STM32L4xx_HAL_Driver/Src/stm32l4xx_hal_uart.c ****    */
 550:Drivers/STM32L4xx_HAL_Driver/Src/stm32l4xx_hal_uart.c **** }
 698              		.loc 1 550 0
 699 0008 00BF     		nop
 700 000a 0C37     		adds	r7, r7, #12
 701              	.LCFI28:
 702              		.cfi_def_cfa_offset 4
 703 000c BD46     		mov	sp, r7
 704              	.LCFI29:
 705              		.cfi_def_cfa_register 13
 706              		@ sp needed
 707 000e 5DF8047B 		ldr	r7, [sp], #4
 708              	.LCFI30:
 709              		.cfi_restore 7
 710              		.cfi_def_cfa_offset 0
 711 0012 7047     		bx	lr
 712              		.cfi_endproc
 713              	.LFE131:
 715              		.section	.text.HAL_UART_MspDeInit,"ax",%progbits
 716              		.align	1
ARM GAS  /tmp/ccMdFX4h.s 			page 23


 717              		.weak	HAL_UART_MspDeInit
 718              		.syntax unified
 719              		.thumb
 720              		.thumb_func
 721              		.fpu fpv4-sp-d16
 723              	HAL_UART_MspDeInit:
 724              	.LFB132:
 551:Drivers/STM32L4xx_HAL_Driver/Src/stm32l4xx_hal_uart.c **** 
 552:Drivers/STM32L4xx_HAL_Driver/Src/stm32l4xx_hal_uart.c **** /**
 553:Drivers/STM32L4xx_HAL_Driver/Src/stm32l4xx_hal_uart.c ****   * @brief DeInitialize the UART MSP.
 554:Drivers/STM32L4xx_HAL_Driver/Src/stm32l4xx_hal_uart.c ****   * @param huart: UART handle.
 555:Drivers/STM32L4xx_HAL_Driver/Src/stm32l4xx_hal_uart.c ****   * @retval None
 556:Drivers/STM32L4xx_HAL_Driver/Src/stm32l4xx_hal_uart.c ****   */
 557:Drivers/STM32L4xx_HAL_Driver/Src/stm32l4xx_hal_uart.c **** __weak void HAL_UART_MspDeInit(UART_HandleTypeDef *huart)
 558:Drivers/STM32L4xx_HAL_Driver/Src/stm32l4xx_hal_uart.c **** {
 725              		.loc 1 558 0
 726              		.cfi_startproc
 727              		@ args = 0, pretend = 0, frame = 8
 728              		@ frame_needed = 1, uses_anonymous_args = 0
 729              		@ link register save eliminated.
 730 0000 80B4     		push	{r7}
 731              	.LCFI31:
 732              		.cfi_def_cfa_offset 4
 733              		.cfi_offset 7, -4
 734 0002 83B0     		sub	sp, sp, #12
 735              	.LCFI32:
 736              		.cfi_def_cfa_offset 16
 737 0004 00AF     		add	r7, sp, #0
 738              	.LCFI33:
 739              		.cfi_def_cfa_register 7
 740 0006 7860     		str	r0, [r7, #4]
 559:Drivers/STM32L4xx_HAL_Driver/Src/stm32l4xx_hal_uart.c ****   /* Prevent unused argument(s) compilation warning */
 560:Drivers/STM32L4xx_HAL_Driver/Src/stm32l4xx_hal_uart.c ****   UNUSED(huart);
 561:Drivers/STM32L4xx_HAL_Driver/Src/stm32l4xx_hal_uart.c **** 
 562:Drivers/STM32L4xx_HAL_Driver/Src/stm32l4xx_hal_uart.c ****   /* NOTE : This function should not be modified, when the callback is needed,
 563:Drivers/STM32L4xx_HAL_Driver/Src/stm32l4xx_hal_uart.c ****             the HAL_UART_MspDeInit can be implemented in the user file
 564:Drivers/STM32L4xx_HAL_Driver/Src/stm32l4xx_hal_uart.c ****    */
 565:Drivers/STM32L4xx_HAL_Driver/Src/stm32l4xx_hal_uart.c **** }
 741              		.loc 1 565 0
 742 0008 00BF     		nop
 743 000a 0C37     		adds	r7, r7, #12
 744              	.LCFI34:
 745              		.cfi_def_cfa_offset 4
 746 000c BD46     		mov	sp, r7
 747              	.LCFI35:
 748              		.cfi_def_cfa_register 13
 749              		@ sp needed
 750 000e 5DF8047B 		ldr	r7, [sp], #4
 751              	.LCFI36:
 752              		.cfi_restore 7
 753              		.cfi_def_cfa_offset 0
 754 0012 7047     		bx	lr
 755              		.cfi_endproc
 756              	.LFE132:
 758              		.section	.text.HAL_UART_Transmit,"ax",%progbits
 759              		.align	1
 760              		.global	HAL_UART_Transmit
ARM GAS  /tmp/ccMdFX4h.s 			page 24


 761              		.syntax unified
 762              		.thumb
 763              		.thumb_func
 764              		.fpu fpv4-sp-d16
 766              	HAL_UART_Transmit:
 767              	.LFB133:
 566:Drivers/STM32L4xx_HAL_Driver/Src/stm32l4xx_hal_uart.c **** 
 567:Drivers/STM32L4xx_HAL_Driver/Src/stm32l4xx_hal_uart.c **** /**
 568:Drivers/STM32L4xx_HAL_Driver/Src/stm32l4xx_hal_uart.c ****   * @}
 569:Drivers/STM32L4xx_HAL_Driver/Src/stm32l4xx_hal_uart.c ****   */
 570:Drivers/STM32L4xx_HAL_Driver/Src/stm32l4xx_hal_uart.c **** 
 571:Drivers/STM32L4xx_HAL_Driver/Src/stm32l4xx_hal_uart.c **** /** @defgroup UART_Exported_Functions_Group2 IO operation functions
 572:Drivers/STM32L4xx_HAL_Driver/Src/stm32l4xx_hal_uart.c ****   * @brief UART Transmit/Receive functions
 573:Drivers/STM32L4xx_HAL_Driver/Src/stm32l4xx_hal_uart.c ****   *
 574:Drivers/STM32L4xx_HAL_Driver/Src/stm32l4xx_hal_uart.c **** @verbatim
 575:Drivers/STM32L4xx_HAL_Driver/Src/stm32l4xx_hal_uart.c ****  ===============================================================================
 576:Drivers/STM32L4xx_HAL_Driver/Src/stm32l4xx_hal_uart.c ****                       ##### IO operation functions #####
 577:Drivers/STM32L4xx_HAL_Driver/Src/stm32l4xx_hal_uart.c ****  ===============================================================================
 578:Drivers/STM32L4xx_HAL_Driver/Src/stm32l4xx_hal_uart.c ****     This subsection provides a set of functions allowing to manage the UART asynchronous
 579:Drivers/STM32L4xx_HAL_Driver/Src/stm32l4xx_hal_uart.c ****     and Half duplex data transfers.
 580:Drivers/STM32L4xx_HAL_Driver/Src/stm32l4xx_hal_uart.c **** 
 581:Drivers/STM32L4xx_HAL_Driver/Src/stm32l4xx_hal_uart.c ****     (#) There are two mode of transfer:
 582:Drivers/STM32L4xx_HAL_Driver/Src/stm32l4xx_hal_uart.c ****        (+) Blocking mode: The communication is performed in polling mode.
 583:Drivers/STM32L4xx_HAL_Driver/Src/stm32l4xx_hal_uart.c ****            The HAL status of all data processing is returned by the same function
 584:Drivers/STM32L4xx_HAL_Driver/Src/stm32l4xx_hal_uart.c ****            after finishing transfer.
 585:Drivers/STM32L4xx_HAL_Driver/Src/stm32l4xx_hal_uart.c ****        (+) Non-Blocking mode: The communication is performed using Interrupts
 586:Drivers/STM32L4xx_HAL_Driver/Src/stm32l4xx_hal_uart.c ****            or DMA, These API's return the HAL status.
 587:Drivers/STM32L4xx_HAL_Driver/Src/stm32l4xx_hal_uart.c ****            The end of the data processing will be indicated through the
 588:Drivers/STM32L4xx_HAL_Driver/Src/stm32l4xx_hal_uart.c ****            dedicated UART IRQ when using Interrupt mode or the DMA IRQ when
 589:Drivers/STM32L4xx_HAL_Driver/Src/stm32l4xx_hal_uart.c ****            using DMA mode.
 590:Drivers/STM32L4xx_HAL_Driver/Src/stm32l4xx_hal_uart.c ****            The HAL_UART_TxCpltCallback(), HAL_UART_RxCpltCallback() user callbacks
 591:Drivers/STM32L4xx_HAL_Driver/Src/stm32l4xx_hal_uart.c ****            will be executed respectively at the end of the transmit or Receive process
 592:Drivers/STM32L4xx_HAL_Driver/Src/stm32l4xx_hal_uart.c ****            The HAL_UART_ErrorCallback()user callback will be executed when a communication error is
 593:Drivers/STM32L4xx_HAL_Driver/Src/stm32l4xx_hal_uart.c **** 
 594:Drivers/STM32L4xx_HAL_Driver/Src/stm32l4xx_hal_uart.c ****     (#) Blocking mode API's are :
 595:Drivers/STM32L4xx_HAL_Driver/Src/stm32l4xx_hal_uart.c ****         (+) HAL_UART_Transmit()
 596:Drivers/STM32L4xx_HAL_Driver/Src/stm32l4xx_hal_uart.c ****         (+) HAL_UART_Receive()
 597:Drivers/STM32L4xx_HAL_Driver/Src/stm32l4xx_hal_uart.c **** 
 598:Drivers/STM32L4xx_HAL_Driver/Src/stm32l4xx_hal_uart.c ****     (#) Non-Blocking mode API's with Interrupt are :
 599:Drivers/STM32L4xx_HAL_Driver/Src/stm32l4xx_hal_uart.c ****         (+) HAL_UART_Transmit_IT()
 600:Drivers/STM32L4xx_HAL_Driver/Src/stm32l4xx_hal_uart.c ****         (+) HAL_UART_Receive_IT()
 601:Drivers/STM32L4xx_HAL_Driver/Src/stm32l4xx_hal_uart.c ****         (+) HAL_UART_IRQHandler()
 602:Drivers/STM32L4xx_HAL_Driver/Src/stm32l4xx_hal_uart.c **** 
 603:Drivers/STM32L4xx_HAL_Driver/Src/stm32l4xx_hal_uart.c ****     (#) Non-Blocking mode API's with DMA are :
 604:Drivers/STM32L4xx_HAL_Driver/Src/stm32l4xx_hal_uart.c ****         (+) HAL_UART_Transmit_DMA()
 605:Drivers/STM32L4xx_HAL_Driver/Src/stm32l4xx_hal_uart.c ****         (+) HAL_UART_Receive_DMA()
 606:Drivers/STM32L4xx_HAL_Driver/Src/stm32l4xx_hal_uart.c ****         (+) HAL_UART_DMAPause()
 607:Drivers/STM32L4xx_HAL_Driver/Src/stm32l4xx_hal_uart.c ****         (+) HAL_UART_DMAResume()
 608:Drivers/STM32L4xx_HAL_Driver/Src/stm32l4xx_hal_uart.c ****         (+) HAL_UART_DMAStop()
 609:Drivers/STM32L4xx_HAL_Driver/Src/stm32l4xx_hal_uart.c **** 
 610:Drivers/STM32L4xx_HAL_Driver/Src/stm32l4xx_hal_uart.c ****     (#) A set of Transfer Complete Callbacks are provided in Non_Blocking mode:
 611:Drivers/STM32L4xx_HAL_Driver/Src/stm32l4xx_hal_uart.c ****         (+) HAL_UART_TxHalfCpltCallback()
 612:Drivers/STM32L4xx_HAL_Driver/Src/stm32l4xx_hal_uart.c ****         (+) HAL_UART_TxCpltCallback()
 613:Drivers/STM32L4xx_HAL_Driver/Src/stm32l4xx_hal_uart.c ****         (+) HAL_UART_RxHalfCpltCallback()
 614:Drivers/STM32L4xx_HAL_Driver/Src/stm32l4xx_hal_uart.c ****         (+) HAL_UART_RxCpltCallback()
 615:Drivers/STM32L4xx_HAL_Driver/Src/stm32l4xx_hal_uart.c ****         (+) HAL_UART_ErrorCallback()
 616:Drivers/STM32L4xx_HAL_Driver/Src/stm32l4xx_hal_uart.c **** 
ARM GAS  /tmp/ccMdFX4h.s 			page 25


 617:Drivers/STM32L4xx_HAL_Driver/Src/stm32l4xx_hal_uart.c ****     (#) Non-Blocking mode transfers could be aborted using Abort API's :
 618:Drivers/STM32L4xx_HAL_Driver/Src/stm32l4xx_hal_uart.c ****         (+) HAL_UART_Abort()
 619:Drivers/STM32L4xx_HAL_Driver/Src/stm32l4xx_hal_uart.c ****         (+) HAL_UART_AbortTransmit()
 620:Drivers/STM32L4xx_HAL_Driver/Src/stm32l4xx_hal_uart.c ****         (+) HAL_UART_AbortReceive()
 621:Drivers/STM32L4xx_HAL_Driver/Src/stm32l4xx_hal_uart.c ****         (+) HAL_UART_Abort_IT()
 622:Drivers/STM32L4xx_HAL_Driver/Src/stm32l4xx_hal_uart.c ****         (+) HAL_UART_AbortTransmit_IT()
 623:Drivers/STM32L4xx_HAL_Driver/Src/stm32l4xx_hal_uart.c ****         (+) HAL_UART_AbortReceive_IT()
 624:Drivers/STM32L4xx_HAL_Driver/Src/stm32l4xx_hal_uart.c **** 
 625:Drivers/STM32L4xx_HAL_Driver/Src/stm32l4xx_hal_uart.c ****     (#) For Abort services based on interrupts (HAL_UART_Abortxxx_IT), a set of Abort Complete Call
 626:Drivers/STM32L4xx_HAL_Driver/Src/stm32l4xx_hal_uart.c ****         (+) HAL_UART_AbortCpltCallback()
 627:Drivers/STM32L4xx_HAL_Driver/Src/stm32l4xx_hal_uart.c ****         (+) HAL_UART_AbortTransmitCpltCallback()
 628:Drivers/STM32L4xx_HAL_Driver/Src/stm32l4xx_hal_uart.c ****         (+) HAL_UART_AbortReceiveCpltCallback()
 629:Drivers/STM32L4xx_HAL_Driver/Src/stm32l4xx_hal_uart.c **** 
 630:Drivers/STM32L4xx_HAL_Driver/Src/stm32l4xx_hal_uart.c ****     (#) In Non-Blocking mode transfers, possible errors are split into 2 categories.
 631:Drivers/STM32L4xx_HAL_Driver/Src/stm32l4xx_hal_uart.c ****         Errors are handled as follows :
 632:Drivers/STM32L4xx_HAL_Driver/Src/stm32l4xx_hal_uart.c ****        (+) Error is considered as Recoverable and non blocking : Transfer could go till end, but er
 633:Drivers/STM32L4xx_HAL_Driver/Src/stm32l4xx_hal_uart.c ****            to be evaluated by user : this concerns Frame Error, Parity Error or Noise Error in Inte
 634:Drivers/STM32L4xx_HAL_Driver/Src/stm32l4xx_hal_uart.c ****            Received character is then retrieved and stored in Rx buffer, Error code is set to allow
 635:Drivers/STM32L4xx_HAL_Driver/Src/stm32l4xx_hal_uart.c ****            and HAL_UART_ErrorCallback() user callback is executed. Transfer is kept ongoing on UART
 636:Drivers/STM32L4xx_HAL_Driver/Src/stm32l4xx_hal_uart.c ****            If user wants to abort it, Abort services should be called by user.
 637:Drivers/STM32L4xx_HAL_Driver/Src/stm32l4xx_hal_uart.c ****        (+) Error is considered as Blocking : Transfer could not be completed properly and is aborte
 638:Drivers/STM32L4xx_HAL_Driver/Src/stm32l4xx_hal_uart.c ****            This concerns Overrun Error In Interrupt mode reception and all errors in DMA mode.
 639:Drivers/STM32L4xx_HAL_Driver/Src/stm32l4xx_hal_uart.c ****            Error code is set to allow user to identify error type, and HAL_UART_ErrorCallback() use
 640:Drivers/STM32L4xx_HAL_Driver/Src/stm32l4xx_hal_uart.c **** 
 641:Drivers/STM32L4xx_HAL_Driver/Src/stm32l4xx_hal_uart.c ****     -@- In the Half duplex communication, it is forbidden to run the transmit
 642:Drivers/STM32L4xx_HAL_Driver/Src/stm32l4xx_hal_uart.c ****         and receive process in parallel, the UART state HAL_UART_STATE_BUSY_TX_RX can't be useful.
 643:Drivers/STM32L4xx_HAL_Driver/Src/stm32l4xx_hal_uart.c **** 
 644:Drivers/STM32L4xx_HAL_Driver/Src/stm32l4xx_hal_uart.c **** @endverbatim
 645:Drivers/STM32L4xx_HAL_Driver/Src/stm32l4xx_hal_uart.c ****   * @{
 646:Drivers/STM32L4xx_HAL_Driver/Src/stm32l4xx_hal_uart.c ****   */
 647:Drivers/STM32L4xx_HAL_Driver/Src/stm32l4xx_hal_uart.c **** 
 648:Drivers/STM32L4xx_HAL_Driver/Src/stm32l4xx_hal_uart.c **** /**
 649:Drivers/STM32L4xx_HAL_Driver/Src/stm32l4xx_hal_uart.c ****   * @brief Send an amount of data in blocking mode.
 650:Drivers/STM32L4xx_HAL_Driver/Src/stm32l4xx_hal_uart.c ****   * @param huart: UART handle.
 651:Drivers/STM32L4xx_HAL_Driver/Src/stm32l4xx_hal_uart.c ****   * @param pData: Pointer to data buffer.
 652:Drivers/STM32L4xx_HAL_Driver/Src/stm32l4xx_hal_uart.c ****   * @param Size: Amount of data to be sent.
 653:Drivers/STM32L4xx_HAL_Driver/Src/stm32l4xx_hal_uart.c ****   * @param Timeout: Timeout duration.
 654:Drivers/STM32L4xx_HAL_Driver/Src/stm32l4xx_hal_uart.c ****   * @retval HAL status
 655:Drivers/STM32L4xx_HAL_Driver/Src/stm32l4xx_hal_uart.c ****   */
 656:Drivers/STM32L4xx_HAL_Driver/Src/stm32l4xx_hal_uart.c **** HAL_StatusTypeDef HAL_UART_Transmit(UART_HandleTypeDef *huart, uint8_t *pData, uint16_t Size, uint3
 657:Drivers/STM32L4xx_HAL_Driver/Src/stm32l4xx_hal_uart.c **** {
 768              		.loc 1 657 0
 769              		.cfi_startproc
 770              		@ args = 0, pretend = 0, frame = 24
 771              		@ frame_needed = 1, uses_anonymous_args = 0
 772 0000 80B5     		push	{r7, lr}
 773              	.LCFI37:
 774              		.cfi_def_cfa_offset 8
 775              		.cfi_offset 7, -8
 776              		.cfi_offset 14, -4
 777 0002 88B0     		sub	sp, sp, #32
 778              	.LCFI38:
 779              		.cfi_def_cfa_offset 40
 780 0004 02AF     		add	r7, sp, #8
 781              	.LCFI39:
 782              		.cfi_def_cfa 7, 32
 783 0006 F860     		str	r0, [r7, #12]
ARM GAS  /tmp/ccMdFX4h.s 			page 26


 784 0008 B960     		str	r1, [r7, #8]
 785 000a 3B60     		str	r3, [r7]
 786 000c 1346     		mov	r3, r2	@ movhi
 787 000e FB80     		strh	r3, [r7, #6]	@ movhi
 658:Drivers/STM32L4xx_HAL_Driver/Src/stm32l4xx_hal_uart.c ****   uint16_t* tmp;
 659:Drivers/STM32L4xx_HAL_Driver/Src/stm32l4xx_hal_uart.c ****   uint32_t tickstart = 0;
 788              		.loc 1 659 0
 789 0010 0023     		movs	r3, #0
 790 0012 7B61     		str	r3, [r7, #20]
 660:Drivers/STM32L4xx_HAL_Driver/Src/stm32l4xx_hal_uart.c **** 
 661:Drivers/STM32L4xx_HAL_Driver/Src/stm32l4xx_hal_uart.c ****   /* Check that a Tx process is not already ongoing */
 662:Drivers/STM32L4xx_HAL_Driver/Src/stm32l4xx_hal_uart.c ****   if(huart->gState == HAL_UART_STATE_READY)
 791              		.loc 1 662 0
 792 0014 FB68     		ldr	r3, [r7, #12]
 793 0016 93F86930 		ldrb	r3, [r3, #105]
 794 001a DBB2     		uxtb	r3, r3
 795 001c 202B     		cmp	r3, #32
 796 001e 77D1     		bne	.L34
 663:Drivers/STM32L4xx_HAL_Driver/Src/stm32l4xx_hal_uart.c ****   {
 664:Drivers/STM32L4xx_HAL_Driver/Src/stm32l4xx_hal_uart.c ****     if((pData == NULL ) || (Size == 0))
 797              		.loc 1 664 0
 798 0020 BB68     		ldr	r3, [r7, #8]
 799 0022 002B     		cmp	r3, #0
 800 0024 02D0     		beq	.L35
 801              		.loc 1 664 0 is_stmt 0 discriminator 1
 802 0026 FB88     		ldrh	r3, [r7, #6]
 803 0028 002B     		cmp	r3, #0
 804 002a 01D1     		bne	.L36
 805              	.L35:
 665:Drivers/STM32L4xx_HAL_Driver/Src/stm32l4xx_hal_uart.c ****     {
 666:Drivers/STM32L4xx_HAL_Driver/Src/stm32l4xx_hal_uart.c ****       return  HAL_ERROR;
 806              		.loc 1 666 0 is_stmt 1
 807 002c 0123     		movs	r3, #1
 808 002e 70E0     		b	.L37
 809              	.L36:
 667:Drivers/STM32L4xx_HAL_Driver/Src/stm32l4xx_hal_uart.c ****     }
 668:Drivers/STM32L4xx_HAL_Driver/Src/stm32l4xx_hal_uart.c **** 
 669:Drivers/STM32L4xx_HAL_Driver/Src/stm32l4xx_hal_uart.c ****     /* Process Locked */
 670:Drivers/STM32L4xx_HAL_Driver/Src/stm32l4xx_hal_uart.c ****     __HAL_LOCK(huart);
 810              		.loc 1 670 0
 811 0030 FB68     		ldr	r3, [r7, #12]
 812 0032 93F86830 		ldrb	r3, [r3, #104]	@ zero_extendqisi2
 813 0036 012B     		cmp	r3, #1
 814 0038 01D1     		bne	.L38
 815              		.loc 1 670 0 is_stmt 0 discriminator 1
 816 003a 0223     		movs	r3, #2
 817 003c 69E0     		b	.L37
 818              	.L38:
 819              		.loc 1 670 0 discriminator 2
 820 003e FB68     		ldr	r3, [r7, #12]
 821 0040 0122     		movs	r2, #1
 822 0042 83F86820 		strb	r2, [r3, #104]
 671:Drivers/STM32L4xx_HAL_Driver/Src/stm32l4xx_hal_uart.c **** 
 672:Drivers/STM32L4xx_HAL_Driver/Src/stm32l4xx_hal_uart.c ****     huart->ErrorCode = HAL_UART_ERROR_NONE;
 823              		.loc 1 672 0 is_stmt 1 discriminator 2
 824 0046 FB68     		ldr	r3, [r7, #12]
 825 0048 0022     		movs	r2, #0
ARM GAS  /tmp/ccMdFX4h.s 			page 27


 826 004a DA66     		str	r2, [r3, #108]
 673:Drivers/STM32L4xx_HAL_Driver/Src/stm32l4xx_hal_uart.c ****     huart->gState = HAL_UART_STATE_BUSY_TX;
 827              		.loc 1 673 0 discriminator 2
 828 004c FB68     		ldr	r3, [r7, #12]
 829 004e 2122     		movs	r2, #33
 830 0050 83F86920 		strb	r2, [r3, #105]
 674:Drivers/STM32L4xx_HAL_Driver/Src/stm32l4xx_hal_uart.c **** 
 675:Drivers/STM32L4xx_HAL_Driver/Src/stm32l4xx_hal_uart.c ****     /* Init tickstart for timeout managment*/
 676:Drivers/STM32L4xx_HAL_Driver/Src/stm32l4xx_hal_uart.c ****     tickstart = HAL_GetTick();
 831              		.loc 1 676 0 discriminator 2
 832 0054 FFF7FEFF 		bl	HAL_GetTick
 833 0058 7861     		str	r0, [r7, #20]
 677:Drivers/STM32L4xx_HAL_Driver/Src/stm32l4xx_hal_uart.c **** 
 678:Drivers/STM32L4xx_HAL_Driver/Src/stm32l4xx_hal_uart.c ****     huart->TxXferSize = Size;
 834              		.loc 1 678 0 discriminator 2
 835 005a FB68     		ldr	r3, [r7, #12]
 836 005c FA88     		ldrh	r2, [r7, #6]	@ movhi
 837 005e A3F85020 		strh	r2, [r3, #80]	@ movhi
 679:Drivers/STM32L4xx_HAL_Driver/Src/stm32l4xx_hal_uart.c ****     huart->TxXferCount = Size;
 838              		.loc 1 679 0 discriminator 2
 839 0062 FB68     		ldr	r3, [r7, #12]
 840 0064 FA88     		ldrh	r2, [r7, #6]	@ movhi
 841 0066 A3F85220 		strh	r2, [r3, #82]	@ movhi
 680:Drivers/STM32L4xx_HAL_Driver/Src/stm32l4xx_hal_uart.c ****     while(huart->TxXferCount > 0)
 842              		.loc 1 680 0 discriminator 2
 843 006a 34E0     		b	.L39
 844              	.L42:
 681:Drivers/STM32L4xx_HAL_Driver/Src/stm32l4xx_hal_uart.c ****     {
 682:Drivers/STM32L4xx_HAL_Driver/Src/stm32l4xx_hal_uart.c ****       huart->TxXferCount--;
 845              		.loc 1 682 0
 846 006c FB68     		ldr	r3, [r7, #12]
 847 006e B3F85230 		ldrh	r3, [r3, #82]	@ movhi
 848 0072 9BB2     		uxth	r3, r3
 849 0074 013B     		subs	r3, r3, #1
 850 0076 9AB2     		uxth	r2, r3
 851 0078 FB68     		ldr	r3, [r7, #12]
 852 007a A3F85220 		strh	r2, [r3, #82]	@ movhi
 683:Drivers/STM32L4xx_HAL_Driver/Src/stm32l4xx_hal_uart.c ****       if(UART_WaitOnFlagUntilTimeout(huart, UART_FLAG_TXE, RESET, tickstart, Timeout) != HAL_OK)
 853              		.loc 1 683 0
 854 007e 3B68     		ldr	r3, [r7]
 855 0080 0093     		str	r3, [sp]
 856 0082 7B69     		ldr	r3, [r7, #20]
 857 0084 0022     		movs	r2, #0
 858 0086 8021     		movs	r1, #128
 859 0088 F868     		ldr	r0, [r7, #12]
 860 008a FFF7FEFF 		bl	UART_WaitOnFlagUntilTimeout
 861 008e 0346     		mov	r3, r0
 862 0090 002B     		cmp	r3, #0
 863 0092 01D0     		beq	.L40
 684:Drivers/STM32L4xx_HAL_Driver/Src/stm32l4xx_hal_uart.c ****       {
 685:Drivers/STM32L4xx_HAL_Driver/Src/stm32l4xx_hal_uart.c ****         return HAL_TIMEOUT;
 864              		.loc 1 685 0
 865 0094 0323     		movs	r3, #3
 866 0096 3CE0     		b	.L37
 867              	.L40:
 686:Drivers/STM32L4xx_HAL_Driver/Src/stm32l4xx_hal_uart.c ****       }
 687:Drivers/STM32L4xx_HAL_Driver/Src/stm32l4xx_hal_uart.c ****       if ((huart->Init.WordLength == UART_WORDLENGTH_9B) && (huart->Init.Parity == UART_PARITY_NONE
ARM GAS  /tmp/ccMdFX4h.s 			page 28


 868              		.loc 1 687 0
 869 0098 FB68     		ldr	r3, [r7, #12]
 870 009a 9B68     		ldr	r3, [r3, #8]
 871 009c B3F5805F 		cmp	r3, #4096
 872 00a0 11D1     		bne	.L41
 873              		.loc 1 687 0 is_stmt 0 discriminator 1
 874 00a2 FB68     		ldr	r3, [r7, #12]
 875 00a4 1B69     		ldr	r3, [r3, #16]
 876 00a6 002B     		cmp	r3, #0
 877 00a8 0DD1     		bne	.L41
 688:Drivers/STM32L4xx_HAL_Driver/Src/stm32l4xx_hal_uart.c ****       {
 689:Drivers/STM32L4xx_HAL_Driver/Src/stm32l4xx_hal_uart.c ****         tmp = (uint16_t*) pData;
 878              		.loc 1 689 0 is_stmt 1
 879 00aa BB68     		ldr	r3, [r7, #8]
 880 00ac 3B61     		str	r3, [r7, #16]
 690:Drivers/STM32L4xx_HAL_Driver/Src/stm32l4xx_hal_uart.c ****         huart->Instance->TDR = (*tmp & (uint16_t)0x01FF);
 881              		.loc 1 690 0
 882 00ae FB68     		ldr	r3, [r7, #12]
 883 00b0 1B68     		ldr	r3, [r3]
 884 00b2 3A69     		ldr	r2, [r7, #16]
 885 00b4 1288     		ldrh	r2, [r2]
 886 00b6 C2F30802 		ubfx	r2, r2, #0, #9
 887 00ba 92B2     		uxth	r2, r2
 888 00bc 1A85     		strh	r2, [r3, #40]	@ movhi
 691:Drivers/STM32L4xx_HAL_Driver/Src/stm32l4xx_hal_uart.c ****         pData += 2;
 889              		.loc 1 691 0
 890 00be BB68     		ldr	r3, [r7, #8]
 891 00c0 0233     		adds	r3, r3, #2
 892 00c2 BB60     		str	r3, [r7, #8]
 893 00c4 07E0     		b	.L39
 894              	.L41:
 692:Drivers/STM32L4xx_HAL_Driver/Src/stm32l4xx_hal_uart.c ****       }
 693:Drivers/STM32L4xx_HAL_Driver/Src/stm32l4xx_hal_uart.c ****       else
 694:Drivers/STM32L4xx_HAL_Driver/Src/stm32l4xx_hal_uart.c ****       {
 695:Drivers/STM32L4xx_HAL_Driver/Src/stm32l4xx_hal_uart.c ****         huart->Instance->TDR = (*pData++ & (uint8_t)0xFF);
 895              		.loc 1 695 0
 896 00c6 FB68     		ldr	r3, [r7, #12]
 897 00c8 1A68     		ldr	r2, [r3]
 898 00ca BB68     		ldr	r3, [r7, #8]
 899 00cc 591C     		adds	r1, r3, #1
 900 00ce B960     		str	r1, [r7, #8]
 901 00d0 1B78     		ldrb	r3, [r3]	@ zero_extendqisi2
 902 00d2 9BB2     		uxth	r3, r3
 903 00d4 1385     		strh	r3, [r2, #40]	@ movhi
 904              	.L39:
 680:Drivers/STM32L4xx_HAL_Driver/Src/stm32l4xx_hal_uart.c ****     {
 905              		.loc 1 680 0
 906 00d6 FB68     		ldr	r3, [r7, #12]
 907 00d8 B3F85230 		ldrh	r3, [r3, #82]	@ movhi
 908 00dc 9BB2     		uxth	r3, r3
 909 00de 002B     		cmp	r3, #0
 910 00e0 C4D1     		bne	.L42
 696:Drivers/STM32L4xx_HAL_Driver/Src/stm32l4xx_hal_uart.c ****       }
 697:Drivers/STM32L4xx_HAL_Driver/Src/stm32l4xx_hal_uart.c ****     }
 698:Drivers/STM32L4xx_HAL_Driver/Src/stm32l4xx_hal_uart.c ****     if(UART_WaitOnFlagUntilTimeout(huart, UART_FLAG_TC, RESET, tickstart, Timeout) != HAL_OK)
 911              		.loc 1 698 0
 912 00e2 3B68     		ldr	r3, [r7]
ARM GAS  /tmp/ccMdFX4h.s 			page 29


 913 00e4 0093     		str	r3, [sp]
 914 00e6 7B69     		ldr	r3, [r7, #20]
 915 00e8 0022     		movs	r2, #0
 916 00ea 4021     		movs	r1, #64
 917 00ec F868     		ldr	r0, [r7, #12]
 918 00ee FFF7FEFF 		bl	UART_WaitOnFlagUntilTimeout
 919 00f2 0346     		mov	r3, r0
 920 00f4 002B     		cmp	r3, #0
 921 00f6 01D0     		beq	.L43
 699:Drivers/STM32L4xx_HAL_Driver/Src/stm32l4xx_hal_uart.c ****     {
 700:Drivers/STM32L4xx_HAL_Driver/Src/stm32l4xx_hal_uart.c ****       return HAL_TIMEOUT;
 922              		.loc 1 700 0
 923 00f8 0323     		movs	r3, #3
 924 00fa 0AE0     		b	.L37
 925              	.L43:
 701:Drivers/STM32L4xx_HAL_Driver/Src/stm32l4xx_hal_uart.c ****     }
 702:Drivers/STM32L4xx_HAL_Driver/Src/stm32l4xx_hal_uart.c **** 
 703:Drivers/STM32L4xx_HAL_Driver/Src/stm32l4xx_hal_uart.c ****     /* At end of Tx process, restore huart->gState to Ready */
 704:Drivers/STM32L4xx_HAL_Driver/Src/stm32l4xx_hal_uart.c ****     huart->gState = HAL_UART_STATE_READY;
 926              		.loc 1 704 0
 927 00fc FB68     		ldr	r3, [r7, #12]
 928 00fe 2022     		movs	r2, #32
 929 0100 83F86920 		strb	r2, [r3, #105]
 705:Drivers/STM32L4xx_HAL_Driver/Src/stm32l4xx_hal_uart.c **** 
 706:Drivers/STM32L4xx_HAL_Driver/Src/stm32l4xx_hal_uart.c ****     /* Process Unlocked */
 707:Drivers/STM32L4xx_HAL_Driver/Src/stm32l4xx_hal_uart.c ****     __HAL_UNLOCK(huart);
 930              		.loc 1 707 0
 931 0104 FB68     		ldr	r3, [r7, #12]
 932 0106 0022     		movs	r2, #0
 933 0108 83F86820 		strb	r2, [r3, #104]
 708:Drivers/STM32L4xx_HAL_Driver/Src/stm32l4xx_hal_uart.c **** 
 709:Drivers/STM32L4xx_HAL_Driver/Src/stm32l4xx_hal_uart.c ****     return HAL_OK;
 934              		.loc 1 709 0
 935 010c 0023     		movs	r3, #0
 936 010e 00E0     		b	.L37
 937              	.L34:
 710:Drivers/STM32L4xx_HAL_Driver/Src/stm32l4xx_hal_uart.c ****   }
 711:Drivers/STM32L4xx_HAL_Driver/Src/stm32l4xx_hal_uart.c ****   else
 712:Drivers/STM32L4xx_HAL_Driver/Src/stm32l4xx_hal_uart.c ****   {
 713:Drivers/STM32L4xx_HAL_Driver/Src/stm32l4xx_hal_uart.c ****     return HAL_BUSY;
 938              		.loc 1 713 0
 939 0110 0223     		movs	r3, #2
 940              	.L37:
 714:Drivers/STM32L4xx_HAL_Driver/Src/stm32l4xx_hal_uart.c ****   }
 715:Drivers/STM32L4xx_HAL_Driver/Src/stm32l4xx_hal_uart.c **** }
 941              		.loc 1 715 0
 942 0112 1846     		mov	r0, r3
 943 0114 1837     		adds	r7, r7, #24
 944              	.LCFI40:
 945              		.cfi_def_cfa_offset 8
 946 0116 BD46     		mov	sp, r7
 947              	.LCFI41:
 948              		.cfi_def_cfa_register 13
 949              		@ sp needed
 950 0118 80BD     		pop	{r7, pc}
 951              		.cfi_endproc
 952              	.LFE133:
ARM GAS  /tmp/ccMdFX4h.s 			page 30


 954              		.section	.text.HAL_UART_Receive,"ax",%progbits
 955              		.align	1
 956              		.global	HAL_UART_Receive
 957              		.syntax unified
 958              		.thumb
 959              		.thumb_func
 960              		.fpu fpv4-sp-d16
 962              	HAL_UART_Receive:
 963              	.LFB134:
 716:Drivers/STM32L4xx_HAL_Driver/Src/stm32l4xx_hal_uart.c **** 
 717:Drivers/STM32L4xx_HAL_Driver/Src/stm32l4xx_hal_uart.c **** /**
 718:Drivers/STM32L4xx_HAL_Driver/Src/stm32l4xx_hal_uart.c ****   * @brief Receive an amount of data in blocking mode.
 719:Drivers/STM32L4xx_HAL_Driver/Src/stm32l4xx_hal_uart.c ****   * @param huart: UART handle.
 720:Drivers/STM32L4xx_HAL_Driver/Src/stm32l4xx_hal_uart.c ****   * @param pData: pointer to data buffer.
 721:Drivers/STM32L4xx_HAL_Driver/Src/stm32l4xx_hal_uart.c ****   * @param Size: amount of data to be received.
 722:Drivers/STM32L4xx_HAL_Driver/Src/stm32l4xx_hal_uart.c ****   * @param Timeout: Timeout duration.
 723:Drivers/STM32L4xx_HAL_Driver/Src/stm32l4xx_hal_uart.c ****   * @retval HAL status
 724:Drivers/STM32L4xx_HAL_Driver/Src/stm32l4xx_hal_uart.c ****   */
 725:Drivers/STM32L4xx_HAL_Driver/Src/stm32l4xx_hal_uart.c **** HAL_StatusTypeDef HAL_UART_Receive(UART_HandleTypeDef *huart, uint8_t *pData, uint16_t Size, uint32
 726:Drivers/STM32L4xx_HAL_Driver/Src/stm32l4xx_hal_uart.c **** {
 964              		.loc 1 726 0
 965              		.cfi_startproc
 966              		@ args = 0, pretend = 0, frame = 32
 967              		@ frame_needed = 1, uses_anonymous_args = 0
 968 0000 80B5     		push	{r7, lr}
 969              	.LCFI42:
 970              		.cfi_def_cfa_offset 8
 971              		.cfi_offset 7, -8
 972              		.cfi_offset 14, -4
 973 0002 8AB0     		sub	sp, sp, #40
 974              	.LCFI43:
 975              		.cfi_def_cfa_offset 48
 976 0004 02AF     		add	r7, sp, #8
 977              	.LCFI44:
 978              		.cfi_def_cfa 7, 40
 979 0006 F860     		str	r0, [r7, #12]
 980 0008 B960     		str	r1, [r7, #8]
 981 000a 3B60     		str	r3, [r7]
 982 000c 1346     		mov	r3, r2	@ movhi
 983 000e FB80     		strh	r3, [r7, #6]	@ movhi
 727:Drivers/STM32L4xx_HAL_Driver/Src/stm32l4xx_hal_uart.c ****   uint16_t* tmp;
 728:Drivers/STM32L4xx_HAL_Driver/Src/stm32l4xx_hal_uart.c ****   uint16_t uhMask;
 729:Drivers/STM32L4xx_HAL_Driver/Src/stm32l4xx_hal_uart.c ****   uint32_t tickstart = 0;
 984              		.loc 1 729 0
 985 0010 0023     		movs	r3, #0
 986 0012 FB61     		str	r3, [r7, #28]
 730:Drivers/STM32L4xx_HAL_Driver/Src/stm32l4xx_hal_uart.c **** 
 731:Drivers/STM32L4xx_HAL_Driver/Src/stm32l4xx_hal_uart.c ****   /* Check that a Rx process is not already ongoing */
 732:Drivers/STM32L4xx_HAL_Driver/Src/stm32l4xx_hal_uart.c ****   if(huart->RxState == HAL_UART_STATE_READY)
 987              		.loc 1 732 0
 988 0014 FB68     		ldr	r3, [r7, #12]
 989 0016 93F86A30 		ldrb	r3, [r3, #106]
 990 001a DBB2     		uxtb	r3, r3
 991 001c 202B     		cmp	r3, #32
 992 001e 40F0AD80 		bne	.L45
 733:Drivers/STM32L4xx_HAL_Driver/Src/stm32l4xx_hal_uart.c ****   {
 734:Drivers/STM32L4xx_HAL_Driver/Src/stm32l4xx_hal_uart.c ****     if((pData == NULL ) || (Size == 0))
ARM GAS  /tmp/ccMdFX4h.s 			page 31


 993              		.loc 1 734 0
 994 0022 BB68     		ldr	r3, [r7, #8]
 995 0024 002B     		cmp	r3, #0
 996 0026 02D0     		beq	.L46
 997              		.loc 1 734 0 is_stmt 0 discriminator 1
 998 0028 FB88     		ldrh	r3, [r7, #6]
 999 002a 002B     		cmp	r3, #0
 1000 002c 01D1     		bne	.L47
 1001              	.L46:
 735:Drivers/STM32L4xx_HAL_Driver/Src/stm32l4xx_hal_uart.c ****     {
 736:Drivers/STM32L4xx_HAL_Driver/Src/stm32l4xx_hal_uart.c ****       return  HAL_ERROR;
 1002              		.loc 1 736 0 is_stmt 1
 1003 002e 0123     		movs	r3, #1
 1004 0030 A5E0     		b	.L48
 1005              	.L47:
 737:Drivers/STM32L4xx_HAL_Driver/Src/stm32l4xx_hal_uart.c ****     }
 738:Drivers/STM32L4xx_HAL_Driver/Src/stm32l4xx_hal_uart.c **** 
 739:Drivers/STM32L4xx_HAL_Driver/Src/stm32l4xx_hal_uart.c ****     /* Process Locked */
 740:Drivers/STM32L4xx_HAL_Driver/Src/stm32l4xx_hal_uart.c ****     __HAL_LOCK(huart);
 1006              		.loc 1 740 0
 1007 0032 FB68     		ldr	r3, [r7, #12]
 1008 0034 93F86830 		ldrb	r3, [r3, #104]	@ zero_extendqisi2
 1009 0038 012B     		cmp	r3, #1
 1010 003a 01D1     		bne	.L49
 1011              		.loc 1 740 0 is_stmt 0 discriminator 1
 1012 003c 0223     		movs	r3, #2
 1013 003e 9EE0     		b	.L48
 1014              	.L49:
 1015              		.loc 1 740 0 discriminator 2
 1016 0040 FB68     		ldr	r3, [r7, #12]
 1017 0042 0122     		movs	r2, #1
 1018 0044 83F86820 		strb	r2, [r3, #104]
 741:Drivers/STM32L4xx_HAL_Driver/Src/stm32l4xx_hal_uart.c **** 
 742:Drivers/STM32L4xx_HAL_Driver/Src/stm32l4xx_hal_uart.c ****     huart->ErrorCode = HAL_UART_ERROR_NONE;
 1019              		.loc 1 742 0 is_stmt 1 discriminator 2
 1020 0048 FB68     		ldr	r3, [r7, #12]
 1021 004a 0022     		movs	r2, #0
 1022 004c DA66     		str	r2, [r3, #108]
 743:Drivers/STM32L4xx_HAL_Driver/Src/stm32l4xx_hal_uart.c ****     huart->RxState = HAL_UART_STATE_BUSY_RX;
 1023              		.loc 1 743 0 discriminator 2
 1024 004e FB68     		ldr	r3, [r7, #12]
 1025 0050 2222     		movs	r2, #34
 1026 0052 83F86A20 		strb	r2, [r3, #106]
 744:Drivers/STM32L4xx_HAL_Driver/Src/stm32l4xx_hal_uart.c **** 
 745:Drivers/STM32L4xx_HAL_Driver/Src/stm32l4xx_hal_uart.c ****     /* Init tickstart for timeout managment*/
 746:Drivers/STM32L4xx_HAL_Driver/Src/stm32l4xx_hal_uart.c ****     tickstart = HAL_GetTick();
 1027              		.loc 1 746 0 discriminator 2
 1028 0056 FFF7FEFF 		bl	HAL_GetTick
 1029 005a F861     		str	r0, [r7, #28]
 747:Drivers/STM32L4xx_HAL_Driver/Src/stm32l4xx_hal_uart.c **** 
 748:Drivers/STM32L4xx_HAL_Driver/Src/stm32l4xx_hal_uart.c ****     huart->RxXferSize = Size;
 1030              		.loc 1 748 0 discriminator 2
 1031 005c FB68     		ldr	r3, [r7, #12]
 1032 005e FA88     		ldrh	r2, [r7, #6]	@ movhi
 1033 0060 A3F85820 		strh	r2, [r3, #88]	@ movhi
 749:Drivers/STM32L4xx_HAL_Driver/Src/stm32l4xx_hal_uart.c ****     huart->RxXferCount = Size;
 1034              		.loc 1 749 0 discriminator 2
ARM GAS  /tmp/ccMdFX4h.s 			page 32


 1035 0064 FB68     		ldr	r3, [r7, #12]
 1036 0066 FA88     		ldrh	r2, [r7, #6]	@ movhi
 1037 0068 A3F85A20 		strh	r2, [r3, #90]	@ movhi
 750:Drivers/STM32L4xx_HAL_Driver/Src/stm32l4xx_hal_uart.c **** 
 751:Drivers/STM32L4xx_HAL_Driver/Src/stm32l4xx_hal_uart.c ****     /* Computation of UART mask to apply to RDR register */
 752:Drivers/STM32L4xx_HAL_Driver/Src/stm32l4xx_hal_uart.c ****     UART_MASK_COMPUTATION(huart);
 1038              		.loc 1 752 0 discriminator 2
 1039 006c FB68     		ldr	r3, [r7, #12]
 1040 006e 9B68     		ldr	r3, [r3, #8]
 1041 0070 B3F5805F 		cmp	r3, #4096
 1042 0074 0ED1     		bne	.L50
 1043              		.loc 1 752 0 is_stmt 0 discriminator 1
 1044 0076 FB68     		ldr	r3, [r7, #12]
 1045 0078 1B69     		ldr	r3, [r3, #16]
 1046 007a 002B     		cmp	r3, #0
 1047 007c 05D1     		bne	.L51
 1048              		.loc 1 752 0 discriminator 3
 1049 007e FB68     		ldr	r3, [r7, #12]
 1050 0080 40F2FF12 		movw	r2, #511
 1051 0084 A3F85C20 		strh	r2, [r3, #92]	@ movhi
 1052 0088 28E0     		b	.L53
 1053              	.L51:
 1054              		.loc 1 752 0 discriminator 4
 1055 008a FB68     		ldr	r3, [r7, #12]
 1056 008c FF22     		movs	r2, #255
 1057 008e A3F85C20 		strh	r2, [r3, #92]	@ movhi
 1058 0092 23E0     		b	.L53
 1059              	.L50:
 1060              		.loc 1 752 0 discriminator 2
 1061 0094 FB68     		ldr	r3, [r7, #12]
 1062 0096 9B68     		ldr	r3, [r3, #8]
 1063 0098 002B     		cmp	r3, #0
 1064 009a 0DD1     		bne	.L54
 1065              		.loc 1 752 0 discriminator 5
 1066 009c FB68     		ldr	r3, [r7, #12]
 1067 009e 1B69     		ldr	r3, [r3, #16]
 1068 00a0 002B     		cmp	r3, #0
 1069 00a2 04D1     		bne	.L55
 1070              		.loc 1 752 0 discriminator 7
 1071 00a4 FB68     		ldr	r3, [r7, #12]
 1072 00a6 FF22     		movs	r2, #255
 1073 00a8 A3F85C20 		strh	r2, [r3, #92]	@ movhi
 1074 00ac 16E0     		b	.L53
 1075              	.L55:
 1076              		.loc 1 752 0 discriminator 8
 1077 00ae FB68     		ldr	r3, [r7, #12]
 1078 00b0 7F22     		movs	r2, #127
 1079 00b2 A3F85C20 		strh	r2, [r3, #92]	@ movhi
 1080 00b6 11E0     		b	.L53
 1081              	.L54:
 1082              		.loc 1 752 0 discriminator 6
 1083 00b8 FB68     		ldr	r3, [r7, #12]
 1084 00ba 9B68     		ldr	r3, [r3, #8]
 1085 00bc B3F1805F 		cmp	r3, #268435456
 1086 00c0 0CD1     		bne	.L53
 1087              		.loc 1 752 0 discriminator 9
 1088 00c2 FB68     		ldr	r3, [r7, #12]
ARM GAS  /tmp/ccMdFX4h.s 			page 33


 1089 00c4 1B69     		ldr	r3, [r3, #16]
 1090 00c6 002B     		cmp	r3, #0
 1091 00c8 04D1     		bne	.L57
 1092              		.loc 1 752 0 discriminator 10
 1093 00ca FB68     		ldr	r3, [r7, #12]
 1094 00cc 7F22     		movs	r2, #127
 1095 00ce A3F85C20 		strh	r2, [r3, #92]	@ movhi
 1096 00d2 03E0     		b	.L53
 1097              	.L57:
 1098              		.loc 1 752 0 discriminator 11
 1099 00d4 FB68     		ldr	r3, [r7, #12]
 1100 00d6 3F22     		movs	r2, #63
 1101 00d8 A3F85C20 		strh	r2, [r3, #92]	@ movhi
 1102              	.L53:
 753:Drivers/STM32L4xx_HAL_Driver/Src/stm32l4xx_hal_uart.c ****     uhMask = huart->Mask;
 1103              		.loc 1 753 0 is_stmt 1
 1104 00dc FB68     		ldr	r3, [r7, #12]
 1105 00de B3F85C30 		ldrh	r3, [r3, #92]	@ movhi
 1106 00e2 7B83     		strh	r3, [r7, #26]	@ movhi
 754:Drivers/STM32L4xx_HAL_Driver/Src/stm32l4xx_hal_uart.c **** 
 755:Drivers/STM32L4xx_HAL_Driver/Src/stm32l4xx_hal_uart.c ****     /* as long as data have to be received */
 756:Drivers/STM32L4xx_HAL_Driver/Src/stm32l4xx_hal_uart.c ****     while(huart->RxXferCount > 0)
 1107              		.loc 1 756 0
 1108 00e4 3AE0     		b	.L58
 1109              	.L61:
 757:Drivers/STM32L4xx_HAL_Driver/Src/stm32l4xx_hal_uart.c ****     {
 758:Drivers/STM32L4xx_HAL_Driver/Src/stm32l4xx_hal_uart.c ****       huart->RxXferCount--;
 1110              		.loc 1 758 0
 1111 00e6 FB68     		ldr	r3, [r7, #12]
 1112 00e8 B3F85A30 		ldrh	r3, [r3, #90]	@ movhi
 1113 00ec 9BB2     		uxth	r3, r3
 1114 00ee 013B     		subs	r3, r3, #1
 1115 00f0 9AB2     		uxth	r2, r3
 1116 00f2 FB68     		ldr	r3, [r7, #12]
 1117 00f4 A3F85A20 		strh	r2, [r3, #90]	@ movhi
 759:Drivers/STM32L4xx_HAL_Driver/Src/stm32l4xx_hal_uart.c ****       if(UART_WaitOnFlagUntilTimeout(huart, UART_FLAG_RXNE, RESET, tickstart, Timeout) != HAL_OK)
 1118              		.loc 1 759 0
 1119 00f8 3B68     		ldr	r3, [r7]
 1120 00fa 0093     		str	r3, [sp]
 1121 00fc FB69     		ldr	r3, [r7, #28]
 1122 00fe 0022     		movs	r2, #0
 1123 0100 2021     		movs	r1, #32
 1124 0102 F868     		ldr	r0, [r7, #12]
 1125 0104 FFF7FEFF 		bl	UART_WaitOnFlagUntilTimeout
 1126 0108 0346     		mov	r3, r0
 1127 010a 002B     		cmp	r3, #0
 1128 010c 01D0     		beq	.L59
 760:Drivers/STM32L4xx_HAL_Driver/Src/stm32l4xx_hal_uart.c ****       {
 761:Drivers/STM32L4xx_HAL_Driver/Src/stm32l4xx_hal_uart.c ****         return HAL_TIMEOUT;
 1129              		.loc 1 761 0
 1130 010e 0323     		movs	r3, #3
 1131 0110 35E0     		b	.L48
 1132              	.L59:
 762:Drivers/STM32L4xx_HAL_Driver/Src/stm32l4xx_hal_uart.c ****       }
 763:Drivers/STM32L4xx_HAL_Driver/Src/stm32l4xx_hal_uart.c ****       if ((huart->Init.WordLength == UART_WORDLENGTH_9B) && (huart->Init.Parity == UART_PARITY_NONE
 1133              		.loc 1 763 0
 1134 0112 FB68     		ldr	r3, [r7, #12]
ARM GAS  /tmp/ccMdFX4h.s 			page 34


 1135 0114 9B68     		ldr	r3, [r3, #8]
 1136 0116 B3F5805F 		cmp	r3, #4096
 1137 011a 12D1     		bne	.L60
 1138              		.loc 1 763 0 is_stmt 0 discriminator 1
 1139 011c FB68     		ldr	r3, [r7, #12]
 1140 011e 1B69     		ldr	r3, [r3, #16]
 1141 0120 002B     		cmp	r3, #0
 1142 0122 0ED1     		bne	.L60
 764:Drivers/STM32L4xx_HAL_Driver/Src/stm32l4xx_hal_uart.c ****       {
 765:Drivers/STM32L4xx_HAL_Driver/Src/stm32l4xx_hal_uart.c ****         tmp = (uint16_t*) pData ;
 1143              		.loc 1 765 0 is_stmt 1
 1144 0124 BB68     		ldr	r3, [r7, #8]
 1145 0126 7B61     		str	r3, [r7, #20]
 766:Drivers/STM32L4xx_HAL_Driver/Src/stm32l4xx_hal_uart.c ****         *tmp = (uint16_t)(huart->Instance->RDR & uhMask);
 1146              		.loc 1 766 0
 1147 0128 FB68     		ldr	r3, [r7, #12]
 1148 012a 1B68     		ldr	r3, [r3]
 1149 012c 9B8C     		ldrh	r3, [r3, #36]	@ movhi
 1150 012e 9AB2     		uxth	r2, r3
 1151 0130 7B8B     		ldrh	r3, [r7, #26]	@ movhi
 1152 0132 1340     		ands	r3, r3, r2
 1153 0134 9AB2     		uxth	r2, r3
 1154 0136 7B69     		ldr	r3, [r7, #20]
 1155 0138 1A80     		strh	r2, [r3]	@ movhi
 767:Drivers/STM32L4xx_HAL_Driver/Src/stm32l4xx_hal_uart.c ****         pData +=2;
 1156              		.loc 1 767 0
 1157 013a BB68     		ldr	r3, [r7, #8]
 1158 013c 0233     		adds	r3, r3, #2
 1159 013e BB60     		str	r3, [r7, #8]
 1160 0140 0CE0     		b	.L58
 1161              	.L60:
 768:Drivers/STM32L4xx_HAL_Driver/Src/stm32l4xx_hal_uart.c ****       }
 769:Drivers/STM32L4xx_HAL_Driver/Src/stm32l4xx_hal_uart.c ****       else
 770:Drivers/STM32L4xx_HAL_Driver/Src/stm32l4xx_hal_uart.c ****       {
 771:Drivers/STM32L4xx_HAL_Driver/Src/stm32l4xx_hal_uart.c ****         *pData++ = (uint8_t)(huart->Instance->RDR & (uint8_t)uhMask);
 1162              		.loc 1 771 0
 1163 0142 BB68     		ldr	r3, [r7, #8]
 1164 0144 5A1C     		adds	r2, r3, #1
 1165 0146 BA60     		str	r2, [r7, #8]
 1166 0148 FA68     		ldr	r2, [r7, #12]
 1167 014a 1268     		ldr	r2, [r2]
 1168 014c 928C     		ldrh	r2, [r2, #36]	@ movhi
 1169 014e 92B2     		uxth	r2, r2
 1170 0150 D1B2     		uxtb	r1, r2
 1171 0152 7A8B     		ldrh	r2, [r7, #26]	@ movhi
 1172 0154 D2B2     		uxtb	r2, r2
 1173 0156 0A40     		ands	r2, r2, r1
 1174 0158 D2B2     		uxtb	r2, r2
 1175 015a 1A70     		strb	r2, [r3]
 1176              	.L58:
 756:Drivers/STM32L4xx_HAL_Driver/Src/stm32l4xx_hal_uart.c ****     {
 1177              		.loc 1 756 0
 1178 015c FB68     		ldr	r3, [r7, #12]
 1179 015e B3F85A30 		ldrh	r3, [r3, #90]	@ movhi
 1180 0162 9BB2     		uxth	r3, r3
 1181 0164 002B     		cmp	r3, #0
 1182 0166 BED1     		bne	.L61
ARM GAS  /tmp/ccMdFX4h.s 			page 35


 772:Drivers/STM32L4xx_HAL_Driver/Src/stm32l4xx_hal_uart.c ****       }
 773:Drivers/STM32L4xx_HAL_Driver/Src/stm32l4xx_hal_uart.c ****     }
 774:Drivers/STM32L4xx_HAL_Driver/Src/stm32l4xx_hal_uart.c **** 
 775:Drivers/STM32L4xx_HAL_Driver/Src/stm32l4xx_hal_uart.c ****     /* At end of Rx process, restore huart->RxState to Ready */
 776:Drivers/STM32L4xx_HAL_Driver/Src/stm32l4xx_hal_uart.c ****     huart->RxState = HAL_UART_STATE_READY;
 1183              		.loc 1 776 0
 1184 0168 FB68     		ldr	r3, [r7, #12]
 1185 016a 2022     		movs	r2, #32
 1186 016c 83F86A20 		strb	r2, [r3, #106]
 777:Drivers/STM32L4xx_HAL_Driver/Src/stm32l4xx_hal_uart.c **** 
 778:Drivers/STM32L4xx_HAL_Driver/Src/stm32l4xx_hal_uart.c ****     /* Process Unlocked */
 779:Drivers/STM32L4xx_HAL_Driver/Src/stm32l4xx_hal_uart.c ****     __HAL_UNLOCK(huart);
 1187              		.loc 1 779 0
 1188 0170 FB68     		ldr	r3, [r7, #12]
 1189 0172 0022     		movs	r2, #0
 1190 0174 83F86820 		strb	r2, [r3, #104]
 780:Drivers/STM32L4xx_HAL_Driver/Src/stm32l4xx_hal_uart.c **** 
 781:Drivers/STM32L4xx_HAL_Driver/Src/stm32l4xx_hal_uart.c ****     return HAL_OK;
 1191              		.loc 1 781 0
 1192 0178 0023     		movs	r3, #0
 1193 017a 00E0     		b	.L48
 1194              	.L45:
 782:Drivers/STM32L4xx_HAL_Driver/Src/stm32l4xx_hal_uart.c ****   }
 783:Drivers/STM32L4xx_HAL_Driver/Src/stm32l4xx_hal_uart.c ****   else
 784:Drivers/STM32L4xx_HAL_Driver/Src/stm32l4xx_hal_uart.c ****   {
 785:Drivers/STM32L4xx_HAL_Driver/Src/stm32l4xx_hal_uart.c ****     return HAL_BUSY;
 1195              		.loc 1 785 0
 1196 017c 0223     		movs	r3, #2
 1197              	.L48:
 786:Drivers/STM32L4xx_HAL_Driver/Src/stm32l4xx_hal_uart.c ****   }
 787:Drivers/STM32L4xx_HAL_Driver/Src/stm32l4xx_hal_uart.c **** }
 1198              		.loc 1 787 0
 1199 017e 1846     		mov	r0, r3
 1200 0180 2037     		adds	r7, r7, #32
 1201              	.LCFI45:
 1202              		.cfi_def_cfa_offset 8
 1203 0182 BD46     		mov	sp, r7
 1204              	.LCFI46:
 1205              		.cfi_def_cfa_register 13
 1206              		@ sp needed
 1207 0184 80BD     		pop	{r7, pc}
 1208              		.cfi_endproc
 1209              	.LFE134:
 1211              		.section	.text.HAL_UART_Transmit_IT,"ax",%progbits
 1212              		.align	1
 1213              		.global	HAL_UART_Transmit_IT
 1214              		.syntax unified
 1215              		.thumb
 1216              		.thumb_func
 1217              		.fpu fpv4-sp-d16
 1219              	HAL_UART_Transmit_IT:
 1220              	.LFB135:
 788:Drivers/STM32L4xx_HAL_Driver/Src/stm32l4xx_hal_uart.c **** 
 789:Drivers/STM32L4xx_HAL_Driver/Src/stm32l4xx_hal_uart.c **** /**
 790:Drivers/STM32L4xx_HAL_Driver/Src/stm32l4xx_hal_uart.c ****   * @brief Send an amount of data in interrupt mode.
 791:Drivers/STM32L4xx_HAL_Driver/Src/stm32l4xx_hal_uart.c ****   * @param huart: UART handle.
 792:Drivers/STM32L4xx_HAL_Driver/Src/stm32l4xx_hal_uart.c ****   * @param pData: pointer to data buffer.
ARM GAS  /tmp/ccMdFX4h.s 			page 36


 793:Drivers/STM32L4xx_HAL_Driver/Src/stm32l4xx_hal_uart.c ****   * @param Size: amount of data to be sent.
 794:Drivers/STM32L4xx_HAL_Driver/Src/stm32l4xx_hal_uart.c ****   * @retval HAL status
 795:Drivers/STM32L4xx_HAL_Driver/Src/stm32l4xx_hal_uart.c ****   */
 796:Drivers/STM32L4xx_HAL_Driver/Src/stm32l4xx_hal_uart.c **** HAL_StatusTypeDef HAL_UART_Transmit_IT(UART_HandleTypeDef *huart, uint8_t *pData, uint16_t Size)
 797:Drivers/STM32L4xx_HAL_Driver/Src/stm32l4xx_hal_uart.c **** {
 1221              		.loc 1 797 0
 1222              		.cfi_startproc
 1223              		@ args = 0, pretend = 0, frame = 16
 1224              		@ frame_needed = 1, uses_anonymous_args = 0
 1225              		@ link register save eliminated.
 1226 0000 80B4     		push	{r7}
 1227              	.LCFI47:
 1228              		.cfi_def_cfa_offset 4
 1229              		.cfi_offset 7, -4
 1230 0002 85B0     		sub	sp, sp, #20
 1231              	.LCFI48:
 1232              		.cfi_def_cfa_offset 24
 1233 0004 00AF     		add	r7, sp, #0
 1234              	.LCFI49:
 1235              		.cfi_def_cfa_register 7
 1236 0006 F860     		str	r0, [r7, #12]
 1237 0008 B960     		str	r1, [r7, #8]
 1238 000a 1346     		mov	r3, r2
 1239 000c FB80     		strh	r3, [r7, #6]	@ movhi
 798:Drivers/STM32L4xx_HAL_Driver/Src/stm32l4xx_hal_uart.c ****   /* Check that a Tx process is not already ongoing */
 799:Drivers/STM32L4xx_HAL_Driver/Src/stm32l4xx_hal_uart.c ****   if(huart->gState == HAL_UART_STATE_READY)
 1240              		.loc 1 799 0
 1241 000e FB68     		ldr	r3, [r7, #12]
 1242 0010 93F86930 		ldrb	r3, [r3, #105]
 1243 0014 DBB2     		uxtb	r3, r3
 1244 0016 202B     		cmp	r3, #32
 1245 0018 32D1     		bne	.L63
 800:Drivers/STM32L4xx_HAL_Driver/Src/stm32l4xx_hal_uart.c ****   {
 801:Drivers/STM32L4xx_HAL_Driver/Src/stm32l4xx_hal_uart.c ****     if((pData == NULL ) || (Size == 0))
 1246              		.loc 1 801 0
 1247 001a BB68     		ldr	r3, [r7, #8]
 1248 001c 002B     		cmp	r3, #0
 1249 001e 02D0     		beq	.L64
 1250              		.loc 1 801 0 is_stmt 0 discriminator 1
 1251 0020 FB88     		ldrh	r3, [r7, #6]
 1252 0022 002B     		cmp	r3, #0
 1253 0024 01D1     		bne	.L65
 1254              	.L64:
 802:Drivers/STM32L4xx_HAL_Driver/Src/stm32l4xx_hal_uart.c ****     {
 803:Drivers/STM32L4xx_HAL_Driver/Src/stm32l4xx_hal_uart.c ****       return HAL_ERROR;
 1255              		.loc 1 803 0 is_stmt 1
 1256 0026 0123     		movs	r3, #1
 1257 0028 2BE0     		b	.L66
 1258              	.L65:
 804:Drivers/STM32L4xx_HAL_Driver/Src/stm32l4xx_hal_uart.c ****     }
 805:Drivers/STM32L4xx_HAL_Driver/Src/stm32l4xx_hal_uart.c **** 
 806:Drivers/STM32L4xx_HAL_Driver/Src/stm32l4xx_hal_uart.c ****     /* Process Locked */
 807:Drivers/STM32L4xx_HAL_Driver/Src/stm32l4xx_hal_uart.c ****     __HAL_LOCK(huart);
 1259              		.loc 1 807 0
 1260 002a FB68     		ldr	r3, [r7, #12]
 1261 002c 93F86830 		ldrb	r3, [r3, #104]	@ zero_extendqisi2
 1262 0030 012B     		cmp	r3, #1
ARM GAS  /tmp/ccMdFX4h.s 			page 37


 1263 0032 01D1     		bne	.L67
 1264              		.loc 1 807 0 is_stmt 0 discriminator 1
 1265 0034 0223     		movs	r3, #2
 1266 0036 24E0     		b	.L66
 1267              	.L67:
 1268              		.loc 1 807 0 discriminator 2
 1269 0038 FB68     		ldr	r3, [r7, #12]
 1270 003a 0122     		movs	r2, #1
 1271 003c 83F86820 		strb	r2, [r3, #104]
 808:Drivers/STM32L4xx_HAL_Driver/Src/stm32l4xx_hal_uart.c **** 
 809:Drivers/STM32L4xx_HAL_Driver/Src/stm32l4xx_hal_uart.c ****     huart->pTxBuffPtr = pData;
 1272              		.loc 1 809 0 is_stmt 1 discriminator 2
 1273 0040 FB68     		ldr	r3, [r7, #12]
 1274 0042 BA68     		ldr	r2, [r7, #8]
 1275 0044 DA64     		str	r2, [r3, #76]
 810:Drivers/STM32L4xx_HAL_Driver/Src/stm32l4xx_hal_uart.c ****     huart->TxXferSize = Size;
 1276              		.loc 1 810 0 discriminator 2
 1277 0046 FB68     		ldr	r3, [r7, #12]
 1278 0048 FA88     		ldrh	r2, [r7, #6]	@ movhi
 1279 004a A3F85020 		strh	r2, [r3, #80]	@ movhi
 811:Drivers/STM32L4xx_HAL_Driver/Src/stm32l4xx_hal_uart.c ****     huart->TxXferCount = Size;
 1280              		.loc 1 811 0 discriminator 2
 1281 004e FB68     		ldr	r3, [r7, #12]
 1282 0050 FA88     		ldrh	r2, [r7, #6]	@ movhi
 1283 0052 A3F85220 		strh	r2, [r3, #82]	@ movhi
 812:Drivers/STM32L4xx_HAL_Driver/Src/stm32l4xx_hal_uart.c **** 
 813:Drivers/STM32L4xx_HAL_Driver/Src/stm32l4xx_hal_uart.c ****     huart->ErrorCode = HAL_UART_ERROR_NONE;
 1284              		.loc 1 813 0 discriminator 2
 1285 0056 FB68     		ldr	r3, [r7, #12]
 1286 0058 0022     		movs	r2, #0
 1287 005a DA66     		str	r2, [r3, #108]
 814:Drivers/STM32L4xx_HAL_Driver/Src/stm32l4xx_hal_uart.c ****     huart->gState = HAL_UART_STATE_BUSY_TX;
 1288              		.loc 1 814 0 discriminator 2
 1289 005c FB68     		ldr	r3, [r7, #12]
 1290 005e 2122     		movs	r2, #33
 1291 0060 83F86920 		strb	r2, [r3, #105]
 815:Drivers/STM32L4xx_HAL_Driver/Src/stm32l4xx_hal_uart.c **** 
 816:Drivers/STM32L4xx_HAL_Driver/Src/stm32l4xx_hal_uart.c ****     /* Process Unlocked */
 817:Drivers/STM32L4xx_HAL_Driver/Src/stm32l4xx_hal_uart.c ****     __HAL_UNLOCK(huart);
 1292              		.loc 1 817 0 discriminator 2
 1293 0064 FB68     		ldr	r3, [r7, #12]
 1294 0066 0022     		movs	r2, #0
 1295 0068 83F86820 		strb	r2, [r3, #104]
 818:Drivers/STM32L4xx_HAL_Driver/Src/stm32l4xx_hal_uart.c **** 
 819:Drivers/STM32L4xx_HAL_Driver/Src/stm32l4xx_hal_uart.c ****     /* Enable the UART Transmit Data Register Empty Interrupt */
 820:Drivers/STM32L4xx_HAL_Driver/Src/stm32l4xx_hal_uart.c ****     SET_BIT(huart->Instance->CR1, USART_CR1_TXEIE);
 1296              		.loc 1 820 0 discriminator 2
 1297 006c FB68     		ldr	r3, [r7, #12]
 1298 006e 1B68     		ldr	r3, [r3]
 1299 0070 FA68     		ldr	r2, [r7, #12]
 1300 0072 1268     		ldr	r2, [r2]
 1301 0074 1268     		ldr	r2, [r2]
 1302 0076 42F08002 		orr	r2, r2, #128
 1303 007a 1A60     		str	r2, [r3]
 821:Drivers/STM32L4xx_HAL_Driver/Src/stm32l4xx_hal_uart.c **** 
 822:Drivers/STM32L4xx_HAL_Driver/Src/stm32l4xx_hal_uart.c ****     return HAL_OK;
 1304              		.loc 1 822 0 discriminator 2
ARM GAS  /tmp/ccMdFX4h.s 			page 38


 1305 007c 0023     		movs	r3, #0
 1306 007e 00E0     		b	.L66
 1307              	.L63:
 823:Drivers/STM32L4xx_HAL_Driver/Src/stm32l4xx_hal_uart.c ****   }
 824:Drivers/STM32L4xx_HAL_Driver/Src/stm32l4xx_hal_uart.c ****   else
 825:Drivers/STM32L4xx_HAL_Driver/Src/stm32l4xx_hal_uart.c ****   {
 826:Drivers/STM32L4xx_HAL_Driver/Src/stm32l4xx_hal_uart.c ****     return HAL_BUSY;
 1308              		.loc 1 826 0
 1309 0080 0223     		movs	r3, #2
 1310              	.L66:
 827:Drivers/STM32L4xx_HAL_Driver/Src/stm32l4xx_hal_uart.c ****   }
 828:Drivers/STM32L4xx_HAL_Driver/Src/stm32l4xx_hal_uart.c **** }
 1311              		.loc 1 828 0
 1312 0082 1846     		mov	r0, r3
 1313 0084 1437     		adds	r7, r7, #20
 1314              	.LCFI50:
 1315              		.cfi_def_cfa_offset 4
 1316 0086 BD46     		mov	sp, r7
 1317              	.LCFI51:
 1318              		.cfi_def_cfa_register 13
 1319              		@ sp needed
 1320 0088 5DF8047B 		ldr	r7, [sp], #4
 1321              	.LCFI52:
 1322              		.cfi_restore 7
 1323              		.cfi_def_cfa_offset 0
 1324 008c 7047     		bx	lr
 1325              		.cfi_endproc
 1326              	.LFE135:
 1328              		.section	.text.HAL_UART_Receive_IT,"ax",%progbits
 1329              		.align	1
 1330              		.global	HAL_UART_Receive_IT
 1331              		.syntax unified
 1332              		.thumb
 1333              		.thumb_func
 1334              		.fpu fpv4-sp-d16
 1336              	HAL_UART_Receive_IT:
 1337              	.LFB136:
 829:Drivers/STM32L4xx_HAL_Driver/Src/stm32l4xx_hal_uart.c **** 
 830:Drivers/STM32L4xx_HAL_Driver/Src/stm32l4xx_hal_uart.c **** /**
 831:Drivers/STM32L4xx_HAL_Driver/Src/stm32l4xx_hal_uart.c ****   * @brief Receive an amount of data in interrupt mode.
 832:Drivers/STM32L4xx_HAL_Driver/Src/stm32l4xx_hal_uart.c ****   * @param huart: UART handle.
 833:Drivers/STM32L4xx_HAL_Driver/Src/stm32l4xx_hal_uart.c ****   * @param pData: pointer to data buffer.
 834:Drivers/STM32L4xx_HAL_Driver/Src/stm32l4xx_hal_uart.c ****   * @param Size: amount of data to be received.
 835:Drivers/STM32L4xx_HAL_Driver/Src/stm32l4xx_hal_uart.c ****   * @retval HAL status
 836:Drivers/STM32L4xx_HAL_Driver/Src/stm32l4xx_hal_uart.c ****   */
 837:Drivers/STM32L4xx_HAL_Driver/Src/stm32l4xx_hal_uart.c **** HAL_StatusTypeDef HAL_UART_Receive_IT(UART_HandleTypeDef *huart, uint8_t *pData, uint16_t Size)
 838:Drivers/STM32L4xx_HAL_Driver/Src/stm32l4xx_hal_uart.c **** {
 1338              		.loc 1 838 0
 1339              		.cfi_startproc
 1340              		@ args = 0, pretend = 0, frame = 16
 1341              		@ frame_needed = 1, uses_anonymous_args = 0
 1342              		@ link register save eliminated.
 1343 0000 80B4     		push	{r7}
 1344              	.LCFI53:
 1345              		.cfi_def_cfa_offset 4
 1346              		.cfi_offset 7, -4
 1347 0002 85B0     		sub	sp, sp, #20
ARM GAS  /tmp/ccMdFX4h.s 			page 39


 1348              	.LCFI54:
 1349              		.cfi_def_cfa_offset 24
 1350 0004 00AF     		add	r7, sp, #0
 1351              	.LCFI55:
 1352              		.cfi_def_cfa_register 7
 1353 0006 F860     		str	r0, [r7, #12]
 1354 0008 B960     		str	r1, [r7, #8]
 1355 000a 1346     		mov	r3, r2
 1356 000c FB80     		strh	r3, [r7, #6]	@ movhi
 839:Drivers/STM32L4xx_HAL_Driver/Src/stm32l4xx_hal_uart.c ****   /* Check that a Rx process is not already ongoing */
 840:Drivers/STM32L4xx_HAL_Driver/Src/stm32l4xx_hal_uart.c ****   if(huart->RxState == HAL_UART_STATE_READY)
 1357              		.loc 1 840 0
 1358 000e FB68     		ldr	r3, [r7, #12]
 1359 0010 93F86A30 		ldrb	r3, [r3, #106]
 1360 0014 DBB2     		uxtb	r3, r3
 1361 0016 202B     		cmp	r3, #32
 1362 0018 72D1     		bne	.L69
 841:Drivers/STM32L4xx_HAL_Driver/Src/stm32l4xx_hal_uart.c ****   {
 842:Drivers/STM32L4xx_HAL_Driver/Src/stm32l4xx_hal_uart.c ****     if((pData == NULL ) || (Size == 0))
 1363              		.loc 1 842 0
 1364 001a BB68     		ldr	r3, [r7, #8]
 1365 001c 002B     		cmp	r3, #0
 1366 001e 02D0     		beq	.L70
 1367              		.loc 1 842 0 is_stmt 0 discriminator 1
 1368 0020 FB88     		ldrh	r3, [r7, #6]
 1369 0022 002B     		cmp	r3, #0
 1370 0024 01D1     		bne	.L71
 1371              	.L70:
 843:Drivers/STM32L4xx_HAL_Driver/Src/stm32l4xx_hal_uart.c ****     {
 844:Drivers/STM32L4xx_HAL_Driver/Src/stm32l4xx_hal_uart.c ****       return HAL_ERROR;
 1372              		.loc 1 844 0 is_stmt 1
 1373 0026 0123     		movs	r3, #1
 1374 0028 6BE0     		b	.L72
 1375              	.L71:
 845:Drivers/STM32L4xx_HAL_Driver/Src/stm32l4xx_hal_uart.c ****     }
 846:Drivers/STM32L4xx_HAL_Driver/Src/stm32l4xx_hal_uart.c **** 
 847:Drivers/STM32L4xx_HAL_Driver/Src/stm32l4xx_hal_uart.c ****     /* Process Locked */
 848:Drivers/STM32L4xx_HAL_Driver/Src/stm32l4xx_hal_uart.c ****     __HAL_LOCK(huart);
 1376              		.loc 1 848 0
 1377 002a FB68     		ldr	r3, [r7, #12]
 1378 002c 93F86830 		ldrb	r3, [r3, #104]	@ zero_extendqisi2
 1379 0030 012B     		cmp	r3, #1
 1380 0032 01D1     		bne	.L73
 1381              		.loc 1 848 0 is_stmt 0 discriminator 1
 1382 0034 0223     		movs	r3, #2
 1383 0036 64E0     		b	.L72
 1384              	.L73:
 1385              		.loc 1 848 0 discriminator 2
 1386 0038 FB68     		ldr	r3, [r7, #12]
 1387 003a 0122     		movs	r2, #1
 1388 003c 83F86820 		strb	r2, [r3, #104]
 849:Drivers/STM32L4xx_HAL_Driver/Src/stm32l4xx_hal_uart.c **** 
 850:Drivers/STM32L4xx_HAL_Driver/Src/stm32l4xx_hal_uart.c ****     huart->pRxBuffPtr = pData;
 1389              		.loc 1 850 0 is_stmt 1 discriminator 2
 1390 0040 FB68     		ldr	r3, [r7, #12]
 1391 0042 BA68     		ldr	r2, [r7, #8]
 1392 0044 5A65     		str	r2, [r3, #84]
ARM GAS  /tmp/ccMdFX4h.s 			page 40


 851:Drivers/STM32L4xx_HAL_Driver/Src/stm32l4xx_hal_uart.c ****     huart->RxXferSize = Size;
 1393              		.loc 1 851 0 discriminator 2
 1394 0046 FB68     		ldr	r3, [r7, #12]
 1395 0048 FA88     		ldrh	r2, [r7, #6]	@ movhi
 1396 004a A3F85820 		strh	r2, [r3, #88]	@ movhi
 852:Drivers/STM32L4xx_HAL_Driver/Src/stm32l4xx_hal_uart.c ****     huart->RxXferCount = Size;
 1397              		.loc 1 852 0 discriminator 2
 1398 004e FB68     		ldr	r3, [r7, #12]
 1399 0050 FA88     		ldrh	r2, [r7, #6]	@ movhi
 1400 0052 A3F85A20 		strh	r2, [r3, #90]	@ movhi
 853:Drivers/STM32L4xx_HAL_Driver/Src/stm32l4xx_hal_uart.c **** 
 854:Drivers/STM32L4xx_HAL_Driver/Src/stm32l4xx_hal_uart.c ****     /* Computation of UART mask to apply to RDR register */
 855:Drivers/STM32L4xx_HAL_Driver/Src/stm32l4xx_hal_uart.c ****     UART_MASK_COMPUTATION(huart);
 1401              		.loc 1 855 0 discriminator 2
 1402 0056 FB68     		ldr	r3, [r7, #12]
 1403 0058 9B68     		ldr	r3, [r3, #8]
 1404 005a B3F5805F 		cmp	r3, #4096
 1405 005e 0ED1     		bne	.L74
 1406              		.loc 1 855 0 is_stmt 0 discriminator 1
 1407 0060 FB68     		ldr	r3, [r7, #12]
 1408 0062 1B69     		ldr	r3, [r3, #16]
 1409 0064 002B     		cmp	r3, #0
 1410 0066 05D1     		bne	.L75
 1411              		.loc 1 855 0 discriminator 3
 1412 0068 FB68     		ldr	r3, [r7, #12]
 1413 006a 40F2FF12 		movw	r2, #511
 1414 006e A3F85C20 		strh	r2, [r3, #92]	@ movhi
 1415 0072 28E0     		b	.L77
 1416              	.L75:
 1417              		.loc 1 855 0 discriminator 4
 1418 0074 FB68     		ldr	r3, [r7, #12]
 1419 0076 FF22     		movs	r2, #255
 1420 0078 A3F85C20 		strh	r2, [r3, #92]	@ movhi
 1421 007c 23E0     		b	.L77
 1422              	.L74:
 1423              		.loc 1 855 0 discriminator 2
 1424 007e FB68     		ldr	r3, [r7, #12]
 1425 0080 9B68     		ldr	r3, [r3, #8]
 1426 0082 002B     		cmp	r3, #0
 1427 0084 0DD1     		bne	.L78
 1428              		.loc 1 855 0 discriminator 5
 1429 0086 FB68     		ldr	r3, [r7, #12]
 1430 0088 1B69     		ldr	r3, [r3, #16]
 1431 008a 002B     		cmp	r3, #0
 1432 008c 04D1     		bne	.L79
 1433              		.loc 1 855 0 discriminator 7
 1434 008e FB68     		ldr	r3, [r7, #12]
 1435 0090 FF22     		movs	r2, #255
 1436 0092 A3F85C20 		strh	r2, [r3, #92]	@ movhi
 1437 0096 16E0     		b	.L77
 1438              	.L79:
 1439              		.loc 1 855 0 discriminator 8
 1440 0098 FB68     		ldr	r3, [r7, #12]
 1441 009a 7F22     		movs	r2, #127
 1442 009c A3F85C20 		strh	r2, [r3, #92]	@ movhi
 1443 00a0 11E0     		b	.L77
 1444              	.L78:
ARM GAS  /tmp/ccMdFX4h.s 			page 41


 1445              		.loc 1 855 0 discriminator 6
 1446 00a2 FB68     		ldr	r3, [r7, #12]
 1447 00a4 9B68     		ldr	r3, [r3, #8]
 1448 00a6 B3F1805F 		cmp	r3, #268435456
 1449 00aa 0CD1     		bne	.L77
 1450              		.loc 1 855 0 discriminator 9
 1451 00ac FB68     		ldr	r3, [r7, #12]
 1452 00ae 1B69     		ldr	r3, [r3, #16]
 1453 00b0 002B     		cmp	r3, #0
 1454 00b2 04D1     		bne	.L81
 1455              		.loc 1 855 0 discriminator 10
 1456 00b4 FB68     		ldr	r3, [r7, #12]
 1457 00b6 7F22     		movs	r2, #127
 1458 00b8 A3F85C20 		strh	r2, [r3, #92]	@ movhi
 1459 00bc 03E0     		b	.L77
 1460              	.L81:
 1461              		.loc 1 855 0 discriminator 11
 1462 00be FB68     		ldr	r3, [r7, #12]
 1463 00c0 3F22     		movs	r2, #63
 1464 00c2 A3F85C20 		strh	r2, [r3, #92]	@ movhi
 1465              	.L77:
 856:Drivers/STM32L4xx_HAL_Driver/Src/stm32l4xx_hal_uart.c **** 
 857:Drivers/STM32L4xx_HAL_Driver/Src/stm32l4xx_hal_uart.c ****     huart->ErrorCode = HAL_UART_ERROR_NONE;
 1466              		.loc 1 857 0 is_stmt 1
 1467 00c6 FB68     		ldr	r3, [r7, #12]
 1468 00c8 0022     		movs	r2, #0
 1469 00ca DA66     		str	r2, [r3, #108]
 858:Drivers/STM32L4xx_HAL_Driver/Src/stm32l4xx_hal_uart.c ****     huart->RxState = HAL_UART_STATE_BUSY_RX;
 1470              		.loc 1 858 0
 1471 00cc FB68     		ldr	r3, [r7, #12]
 1472 00ce 2222     		movs	r2, #34
 1473 00d0 83F86A20 		strb	r2, [r3, #106]
 859:Drivers/STM32L4xx_HAL_Driver/Src/stm32l4xx_hal_uart.c **** 
 860:Drivers/STM32L4xx_HAL_Driver/Src/stm32l4xx_hal_uart.c ****     /* Process Unlocked */
 861:Drivers/STM32L4xx_HAL_Driver/Src/stm32l4xx_hal_uart.c ****     __HAL_UNLOCK(huart);
 1474              		.loc 1 861 0
 1475 00d4 FB68     		ldr	r3, [r7, #12]
 1476 00d6 0022     		movs	r2, #0
 1477 00d8 83F86820 		strb	r2, [r3, #104]
 862:Drivers/STM32L4xx_HAL_Driver/Src/stm32l4xx_hal_uart.c **** 
 863:Drivers/STM32L4xx_HAL_Driver/Src/stm32l4xx_hal_uart.c ****     /* Enable the UART Error Interrupt: (Frame error, noise error, overrun error) */
 864:Drivers/STM32L4xx_HAL_Driver/Src/stm32l4xx_hal_uart.c ****     SET_BIT(huart->Instance->CR3, USART_CR3_EIE);
 1478              		.loc 1 864 0
 1479 00dc FB68     		ldr	r3, [r7, #12]
 1480 00de 1B68     		ldr	r3, [r3]
 1481 00e0 FA68     		ldr	r2, [r7, #12]
 1482 00e2 1268     		ldr	r2, [r2]
 1483 00e4 9268     		ldr	r2, [r2, #8]
 1484 00e6 42F00102 		orr	r2, r2, #1
 1485 00ea 9A60     		str	r2, [r3, #8]
 865:Drivers/STM32L4xx_HAL_Driver/Src/stm32l4xx_hal_uart.c **** 
 866:Drivers/STM32L4xx_HAL_Driver/Src/stm32l4xx_hal_uart.c ****     /* Enable the UART Parity Error and Data Register not empty Interrupts */
 867:Drivers/STM32L4xx_HAL_Driver/Src/stm32l4xx_hal_uart.c ****     SET_BIT(huart->Instance->CR1, USART_CR1_PEIE | USART_CR1_RXNEIE);
 1486              		.loc 1 867 0
 1487 00ec FB68     		ldr	r3, [r7, #12]
 1488 00ee 1B68     		ldr	r3, [r3]
 1489 00f0 FA68     		ldr	r2, [r7, #12]
ARM GAS  /tmp/ccMdFX4h.s 			page 42


 1490 00f2 1268     		ldr	r2, [r2]
 1491 00f4 1268     		ldr	r2, [r2]
 1492 00f6 42F49072 		orr	r2, r2, #288
 1493 00fa 1A60     		str	r2, [r3]
 868:Drivers/STM32L4xx_HAL_Driver/Src/stm32l4xx_hal_uart.c **** 
 869:Drivers/STM32L4xx_HAL_Driver/Src/stm32l4xx_hal_uart.c ****     return HAL_OK;
 1494              		.loc 1 869 0
 1495 00fc 0023     		movs	r3, #0
 1496 00fe 00E0     		b	.L72
 1497              	.L69:
 870:Drivers/STM32L4xx_HAL_Driver/Src/stm32l4xx_hal_uart.c ****   }
 871:Drivers/STM32L4xx_HAL_Driver/Src/stm32l4xx_hal_uart.c ****   else
 872:Drivers/STM32L4xx_HAL_Driver/Src/stm32l4xx_hal_uart.c ****   {
 873:Drivers/STM32L4xx_HAL_Driver/Src/stm32l4xx_hal_uart.c ****     return HAL_BUSY;
 1498              		.loc 1 873 0
 1499 0100 0223     		movs	r3, #2
 1500              	.L72:
 874:Drivers/STM32L4xx_HAL_Driver/Src/stm32l4xx_hal_uart.c ****   }
 875:Drivers/STM32L4xx_HAL_Driver/Src/stm32l4xx_hal_uart.c **** }
 1501              		.loc 1 875 0
 1502 0102 1846     		mov	r0, r3
 1503 0104 1437     		adds	r7, r7, #20
 1504              	.LCFI56:
 1505              		.cfi_def_cfa_offset 4
 1506 0106 BD46     		mov	sp, r7
 1507              	.LCFI57:
 1508              		.cfi_def_cfa_register 13
 1509              		@ sp needed
 1510 0108 5DF8047B 		ldr	r7, [sp], #4
 1511              	.LCFI58:
 1512              		.cfi_restore 7
 1513              		.cfi_def_cfa_offset 0
 1514 010c 7047     		bx	lr
 1515              		.cfi_endproc
 1516              	.LFE136:
 1518              		.section	.text.HAL_UART_Transmit_DMA,"ax",%progbits
 1519              		.align	1
 1520              		.global	HAL_UART_Transmit_DMA
 1521              		.syntax unified
 1522              		.thumb
 1523              		.thumb_func
 1524              		.fpu fpv4-sp-d16
 1526              	HAL_UART_Transmit_DMA:
 1527              	.LFB137:
 876:Drivers/STM32L4xx_HAL_Driver/Src/stm32l4xx_hal_uart.c **** 
 877:Drivers/STM32L4xx_HAL_Driver/Src/stm32l4xx_hal_uart.c **** /**
 878:Drivers/STM32L4xx_HAL_Driver/Src/stm32l4xx_hal_uart.c ****   * @brief Send an amount of data in DMA mode.
 879:Drivers/STM32L4xx_HAL_Driver/Src/stm32l4xx_hal_uart.c ****   * @param huart: UART handle.
 880:Drivers/STM32L4xx_HAL_Driver/Src/stm32l4xx_hal_uart.c ****   * @param pData: pointer to data buffer.
 881:Drivers/STM32L4xx_HAL_Driver/Src/stm32l4xx_hal_uart.c ****   * @param Size: amount of data to be sent.
 882:Drivers/STM32L4xx_HAL_Driver/Src/stm32l4xx_hal_uart.c ****   * @retval HAL status
 883:Drivers/STM32L4xx_HAL_Driver/Src/stm32l4xx_hal_uart.c ****   */
 884:Drivers/STM32L4xx_HAL_Driver/Src/stm32l4xx_hal_uart.c **** HAL_StatusTypeDef HAL_UART_Transmit_DMA(UART_HandleTypeDef *huart, uint8_t *pData, uint16_t Size)
 885:Drivers/STM32L4xx_HAL_Driver/Src/stm32l4xx_hal_uart.c **** {
 1528              		.loc 1 885 0
 1529              		.cfi_startproc
 1530              		@ args = 0, pretend = 0, frame = 16
ARM GAS  /tmp/ccMdFX4h.s 			page 43


 1531              		@ frame_needed = 1, uses_anonymous_args = 0
 1532 0000 80B5     		push	{r7, lr}
 1533              	.LCFI59:
 1534              		.cfi_def_cfa_offset 8
 1535              		.cfi_offset 7, -8
 1536              		.cfi_offset 14, -4
 1537 0002 84B0     		sub	sp, sp, #16
 1538              	.LCFI60:
 1539              		.cfi_def_cfa_offset 24
 1540 0004 00AF     		add	r7, sp, #0
 1541              	.LCFI61:
 1542              		.cfi_def_cfa_register 7
 1543 0006 F860     		str	r0, [r7, #12]
 1544 0008 B960     		str	r1, [r7, #8]
 1545 000a 1346     		mov	r3, r2
 1546 000c FB80     		strh	r3, [r7, #6]	@ movhi
 886:Drivers/STM32L4xx_HAL_Driver/Src/stm32l4xx_hal_uart.c ****   /* Check that a Tx process is not already ongoing */
 887:Drivers/STM32L4xx_HAL_Driver/Src/stm32l4xx_hal_uart.c ****   if(huart->gState == HAL_UART_STATE_READY)
 1547              		.loc 1 887 0
 1548 000e FB68     		ldr	r3, [r7, #12]
 1549 0010 93F86930 		ldrb	r3, [r3, #105]
 1550 0014 DBB2     		uxtb	r3, r3
 1551 0016 202B     		cmp	r3, #32
 1552 0018 52D1     		bne	.L83
 888:Drivers/STM32L4xx_HAL_Driver/Src/stm32l4xx_hal_uart.c ****   {
 889:Drivers/STM32L4xx_HAL_Driver/Src/stm32l4xx_hal_uart.c ****     if((pData == NULL ) || (Size == 0))
 1553              		.loc 1 889 0
 1554 001a BB68     		ldr	r3, [r7, #8]
 1555 001c 002B     		cmp	r3, #0
 1556 001e 02D0     		beq	.L84
 1557              		.loc 1 889 0 is_stmt 0 discriminator 1
 1558 0020 FB88     		ldrh	r3, [r7, #6]
 1559 0022 002B     		cmp	r3, #0
 1560 0024 01D1     		bne	.L85
 1561              	.L84:
 890:Drivers/STM32L4xx_HAL_Driver/Src/stm32l4xx_hal_uart.c ****     {
 891:Drivers/STM32L4xx_HAL_Driver/Src/stm32l4xx_hal_uart.c ****       return HAL_ERROR;
 1562              		.loc 1 891 0 is_stmt 1
 1563 0026 0123     		movs	r3, #1
 1564 0028 4BE0     		b	.L86
 1565              	.L85:
 892:Drivers/STM32L4xx_HAL_Driver/Src/stm32l4xx_hal_uart.c ****     }
 893:Drivers/STM32L4xx_HAL_Driver/Src/stm32l4xx_hal_uart.c **** 
 894:Drivers/STM32L4xx_HAL_Driver/Src/stm32l4xx_hal_uart.c ****     /* Process Locked */
 895:Drivers/STM32L4xx_HAL_Driver/Src/stm32l4xx_hal_uart.c ****     __HAL_LOCK(huart);
 1566              		.loc 1 895 0
 1567 002a FB68     		ldr	r3, [r7, #12]
 1568 002c 93F86830 		ldrb	r3, [r3, #104]	@ zero_extendqisi2
 1569 0030 012B     		cmp	r3, #1
 1570 0032 01D1     		bne	.L87
 1571              		.loc 1 895 0 is_stmt 0 discriminator 1
 1572 0034 0223     		movs	r3, #2
 1573 0036 44E0     		b	.L86
 1574              	.L87:
 1575              		.loc 1 895 0 discriminator 2
 1576 0038 FB68     		ldr	r3, [r7, #12]
 1577 003a 0122     		movs	r2, #1
ARM GAS  /tmp/ccMdFX4h.s 			page 44


 1578 003c 83F86820 		strb	r2, [r3, #104]
 896:Drivers/STM32L4xx_HAL_Driver/Src/stm32l4xx_hal_uart.c **** 
 897:Drivers/STM32L4xx_HAL_Driver/Src/stm32l4xx_hal_uart.c ****     huart->pTxBuffPtr = pData;
 1579              		.loc 1 897 0 is_stmt 1 discriminator 2
 1580 0040 FB68     		ldr	r3, [r7, #12]
 1581 0042 BA68     		ldr	r2, [r7, #8]
 1582 0044 DA64     		str	r2, [r3, #76]
 898:Drivers/STM32L4xx_HAL_Driver/Src/stm32l4xx_hal_uart.c ****     huart->TxXferSize = Size;
 1583              		.loc 1 898 0 discriminator 2
 1584 0046 FB68     		ldr	r3, [r7, #12]
 1585 0048 FA88     		ldrh	r2, [r7, #6]	@ movhi
 1586 004a A3F85020 		strh	r2, [r3, #80]	@ movhi
 899:Drivers/STM32L4xx_HAL_Driver/Src/stm32l4xx_hal_uart.c ****     huart->TxXferCount = Size;
 1587              		.loc 1 899 0 discriminator 2
 1588 004e FB68     		ldr	r3, [r7, #12]
 1589 0050 FA88     		ldrh	r2, [r7, #6]	@ movhi
 1590 0052 A3F85220 		strh	r2, [r3, #82]	@ movhi
 900:Drivers/STM32L4xx_HAL_Driver/Src/stm32l4xx_hal_uart.c **** 
 901:Drivers/STM32L4xx_HAL_Driver/Src/stm32l4xx_hal_uart.c ****     huart->ErrorCode = HAL_UART_ERROR_NONE;
 1591              		.loc 1 901 0 discriminator 2
 1592 0056 FB68     		ldr	r3, [r7, #12]
 1593 0058 0022     		movs	r2, #0
 1594 005a DA66     		str	r2, [r3, #108]
 902:Drivers/STM32L4xx_HAL_Driver/Src/stm32l4xx_hal_uart.c ****     huart->gState = HAL_UART_STATE_BUSY_TX;
 1595              		.loc 1 902 0 discriminator 2
 1596 005c FB68     		ldr	r3, [r7, #12]
 1597 005e 2122     		movs	r2, #33
 1598 0060 83F86920 		strb	r2, [r3, #105]
 903:Drivers/STM32L4xx_HAL_Driver/Src/stm32l4xx_hal_uart.c **** 
 904:Drivers/STM32L4xx_HAL_Driver/Src/stm32l4xx_hal_uart.c ****     /* Set the UART DMA transfer complete callback */
 905:Drivers/STM32L4xx_HAL_Driver/Src/stm32l4xx_hal_uart.c ****     huart->hdmatx->XferCpltCallback = UART_DMATransmitCplt;
 1599              		.loc 1 905 0 discriminator 2
 1600 0064 FB68     		ldr	r3, [r7, #12]
 1601 0066 1B6E     		ldr	r3, [r3, #96]
 1602 0068 184A     		ldr	r2, .L88
 1603 006a DA62     		str	r2, [r3, #44]
 906:Drivers/STM32L4xx_HAL_Driver/Src/stm32l4xx_hal_uart.c **** 
 907:Drivers/STM32L4xx_HAL_Driver/Src/stm32l4xx_hal_uart.c ****     /* Set the UART DMA Half transfer complete callback */
 908:Drivers/STM32L4xx_HAL_Driver/Src/stm32l4xx_hal_uart.c ****     huart->hdmatx->XferHalfCpltCallback = UART_DMATxHalfCplt;
 1604              		.loc 1 908 0 discriminator 2
 1605 006c FB68     		ldr	r3, [r7, #12]
 1606 006e 1B6E     		ldr	r3, [r3, #96]
 1607 0070 174A     		ldr	r2, .L88+4
 1608 0072 1A63     		str	r2, [r3, #48]
 909:Drivers/STM32L4xx_HAL_Driver/Src/stm32l4xx_hal_uart.c **** 
 910:Drivers/STM32L4xx_HAL_Driver/Src/stm32l4xx_hal_uart.c ****     /* Set the DMA error callback */
 911:Drivers/STM32L4xx_HAL_Driver/Src/stm32l4xx_hal_uart.c ****     huart->hdmatx->XferErrorCallback = UART_DMAError;
 1609              		.loc 1 911 0 discriminator 2
 1610 0074 FB68     		ldr	r3, [r7, #12]
 1611 0076 1B6E     		ldr	r3, [r3, #96]
 1612 0078 164A     		ldr	r2, .L88+8
 1613 007a 5A63     		str	r2, [r3, #52]
 912:Drivers/STM32L4xx_HAL_Driver/Src/stm32l4xx_hal_uart.c **** 
 913:Drivers/STM32L4xx_HAL_Driver/Src/stm32l4xx_hal_uart.c ****     /* Set the DMA abort callback */
 914:Drivers/STM32L4xx_HAL_Driver/Src/stm32l4xx_hal_uart.c ****     huart->hdmatx->XferAbortCallback = NULL;
 1614              		.loc 1 914 0 discriminator 2
 1615 007c FB68     		ldr	r3, [r7, #12]
ARM GAS  /tmp/ccMdFX4h.s 			page 45


 1616 007e 1B6E     		ldr	r3, [r3, #96]
 1617 0080 0022     		movs	r2, #0
 1618 0082 9A63     		str	r2, [r3, #56]
 915:Drivers/STM32L4xx_HAL_Driver/Src/stm32l4xx_hal_uart.c **** 
 916:Drivers/STM32L4xx_HAL_Driver/Src/stm32l4xx_hal_uart.c ****     /* Enable the UART transmit DMA channel */
 917:Drivers/STM32L4xx_HAL_Driver/Src/stm32l4xx_hal_uart.c ****     HAL_DMA_Start_IT(huart->hdmatx, (uint32_t)huart->pTxBuffPtr, (uint32_t)&huart->Instance->TDR, S
 1619              		.loc 1 917 0 discriminator 2
 1620 0084 FB68     		ldr	r3, [r7, #12]
 1621 0086 186E     		ldr	r0, [r3, #96]
 1622 0088 FB68     		ldr	r3, [r7, #12]
 1623 008a DB6C     		ldr	r3, [r3, #76]
 1624 008c 1946     		mov	r1, r3
 1625 008e FB68     		ldr	r3, [r7, #12]
 1626 0090 1B68     		ldr	r3, [r3]
 1627 0092 2833     		adds	r3, r3, #40
 1628 0094 1A46     		mov	r2, r3
 1629 0096 FB88     		ldrh	r3, [r7, #6]
 1630 0098 FFF7FEFF 		bl	HAL_DMA_Start_IT
 918:Drivers/STM32L4xx_HAL_Driver/Src/stm32l4xx_hal_uart.c **** 
 919:Drivers/STM32L4xx_HAL_Driver/Src/stm32l4xx_hal_uart.c ****     /* Clear the TC flag in the ICR register */
 920:Drivers/STM32L4xx_HAL_Driver/Src/stm32l4xx_hal_uart.c ****     __HAL_UART_CLEAR_FLAG(huart, UART_CLEAR_TCF);
 1631              		.loc 1 920 0 discriminator 2
 1632 009c FB68     		ldr	r3, [r7, #12]
 1633 009e 1B68     		ldr	r3, [r3]
 1634 00a0 4022     		movs	r2, #64
 1635 00a2 1A62     		str	r2, [r3, #32]
 921:Drivers/STM32L4xx_HAL_Driver/Src/stm32l4xx_hal_uart.c **** 
 922:Drivers/STM32L4xx_HAL_Driver/Src/stm32l4xx_hal_uart.c ****     /* Process Unlocked */
 923:Drivers/STM32L4xx_HAL_Driver/Src/stm32l4xx_hal_uart.c ****     __HAL_UNLOCK(huart);
 1636              		.loc 1 923 0 discriminator 2
 1637 00a4 FB68     		ldr	r3, [r7, #12]
 1638 00a6 0022     		movs	r2, #0
 1639 00a8 83F86820 		strb	r2, [r3, #104]
 924:Drivers/STM32L4xx_HAL_Driver/Src/stm32l4xx_hal_uart.c **** 
 925:Drivers/STM32L4xx_HAL_Driver/Src/stm32l4xx_hal_uart.c ****     /* Enable the DMA transfer for transmit request by setting the DMAT bit
 926:Drivers/STM32L4xx_HAL_Driver/Src/stm32l4xx_hal_uart.c ****        in the UART CR3 register */
 927:Drivers/STM32L4xx_HAL_Driver/Src/stm32l4xx_hal_uart.c ****     SET_BIT(huart->Instance->CR3, USART_CR3_DMAT);
 1640              		.loc 1 927 0 discriminator 2
 1641 00ac FB68     		ldr	r3, [r7, #12]
 1642 00ae 1B68     		ldr	r3, [r3]
 1643 00b0 FA68     		ldr	r2, [r7, #12]
 1644 00b2 1268     		ldr	r2, [r2]
 1645 00b4 9268     		ldr	r2, [r2, #8]
 1646 00b6 42F08002 		orr	r2, r2, #128
 1647 00ba 9A60     		str	r2, [r3, #8]
 928:Drivers/STM32L4xx_HAL_Driver/Src/stm32l4xx_hal_uart.c **** 
 929:Drivers/STM32L4xx_HAL_Driver/Src/stm32l4xx_hal_uart.c ****     return HAL_OK;
 1648              		.loc 1 929 0 discriminator 2
 1649 00bc 0023     		movs	r3, #0
 1650 00be 00E0     		b	.L86
 1651              	.L83:
 930:Drivers/STM32L4xx_HAL_Driver/Src/stm32l4xx_hal_uart.c ****   }
 931:Drivers/STM32L4xx_HAL_Driver/Src/stm32l4xx_hal_uart.c ****   else
 932:Drivers/STM32L4xx_HAL_Driver/Src/stm32l4xx_hal_uart.c ****   {
 933:Drivers/STM32L4xx_HAL_Driver/Src/stm32l4xx_hal_uart.c ****     return HAL_BUSY;
 1652              		.loc 1 933 0
 1653 00c0 0223     		movs	r3, #2
ARM GAS  /tmp/ccMdFX4h.s 			page 46


 1654              	.L86:
 934:Drivers/STM32L4xx_HAL_Driver/Src/stm32l4xx_hal_uart.c ****   }
 935:Drivers/STM32L4xx_HAL_Driver/Src/stm32l4xx_hal_uart.c **** }
 1655              		.loc 1 935 0
 1656 00c2 1846     		mov	r0, r3
 1657 00c4 1037     		adds	r7, r7, #16
 1658              	.LCFI62:
 1659              		.cfi_def_cfa_offset 8
 1660 00c6 BD46     		mov	sp, r7
 1661              	.LCFI63:
 1662              		.cfi_def_cfa_register 13
 1663              		@ sp needed
 1664 00c8 80BD     		pop	{r7, pc}
 1665              	.L89:
 1666 00ca 00BF     		.align	2
 1667              	.L88:
 1668 00cc 00000000 		.word	UART_DMATransmitCplt
 1669 00d0 00000000 		.word	UART_DMATxHalfCplt
 1670 00d4 00000000 		.word	UART_DMAError
 1671              		.cfi_endproc
 1672              	.LFE137:
 1674              		.section	.text.HAL_UART_Receive_DMA,"ax",%progbits
 1675              		.align	1
 1676              		.global	HAL_UART_Receive_DMA
 1677              		.syntax unified
 1678              		.thumb
 1679              		.thumb_func
 1680              		.fpu fpv4-sp-d16
 1682              	HAL_UART_Receive_DMA:
 1683              	.LFB138:
 936:Drivers/STM32L4xx_HAL_Driver/Src/stm32l4xx_hal_uart.c **** 
 937:Drivers/STM32L4xx_HAL_Driver/Src/stm32l4xx_hal_uart.c **** /**
 938:Drivers/STM32L4xx_HAL_Driver/Src/stm32l4xx_hal_uart.c ****   * @brief Receive an amount of data in DMA mode.
 939:Drivers/STM32L4xx_HAL_Driver/Src/stm32l4xx_hal_uart.c ****   * @param huart: UART handle.
 940:Drivers/STM32L4xx_HAL_Driver/Src/stm32l4xx_hal_uart.c ****   * @param pData: pointer to data buffer.
 941:Drivers/STM32L4xx_HAL_Driver/Src/stm32l4xx_hal_uart.c ****   * @param Size: amount of data to be received.
 942:Drivers/STM32L4xx_HAL_Driver/Src/stm32l4xx_hal_uart.c ****   * @note   When the UART parity is enabled (PCE = 1), the received data contain
 943:Drivers/STM32L4xx_HAL_Driver/Src/stm32l4xx_hal_uart.c ****   *         the parity bit (MSB position).
 944:Drivers/STM32L4xx_HAL_Driver/Src/stm32l4xx_hal_uart.c ****   * @retval HAL status
 945:Drivers/STM32L4xx_HAL_Driver/Src/stm32l4xx_hal_uart.c ****   */
 946:Drivers/STM32L4xx_HAL_Driver/Src/stm32l4xx_hal_uart.c **** HAL_StatusTypeDef HAL_UART_Receive_DMA(UART_HandleTypeDef *huart, uint8_t *pData, uint16_t Size)
 947:Drivers/STM32L4xx_HAL_Driver/Src/stm32l4xx_hal_uart.c **** {
 1684              		.loc 1 947 0
 1685              		.cfi_startproc
 1686              		@ args = 0, pretend = 0, frame = 16
 1687              		@ frame_needed = 1, uses_anonymous_args = 0
 1688 0000 80B5     		push	{r7, lr}
 1689              	.LCFI64:
 1690              		.cfi_def_cfa_offset 8
 1691              		.cfi_offset 7, -8
 1692              		.cfi_offset 14, -4
 1693 0002 84B0     		sub	sp, sp, #16
 1694              	.LCFI65:
 1695              		.cfi_def_cfa_offset 24
 1696 0004 00AF     		add	r7, sp, #0
 1697              	.LCFI66:
 1698              		.cfi_def_cfa_register 7
ARM GAS  /tmp/ccMdFX4h.s 			page 47


 1699 0006 F860     		str	r0, [r7, #12]
 1700 0008 B960     		str	r1, [r7, #8]
 1701 000a 1346     		mov	r3, r2
 1702 000c FB80     		strh	r3, [r7, #6]	@ movhi
 948:Drivers/STM32L4xx_HAL_Driver/Src/stm32l4xx_hal_uart.c ****   /* Check that a Rx process is not already ongoing */
 949:Drivers/STM32L4xx_HAL_Driver/Src/stm32l4xx_hal_uart.c ****   if(huart->RxState == HAL_UART_STATE_READY)
 1703              		.loc 1 949 0
 1704 000e FB68     		ldr	r3, [r7, #12]
 1705 0010 93F86A30 		ldrb	r3, [r3, #106]
 1706 0014 DBB2     		uxtb	r3, r3
 1707 0016 202B     		cmp	r3, #32
 1708 0018 5AD1     		bne	.L91
 950:Drivers/STM32L4xx_HAL_Driver/Src/stm32l4xx_hal_uart.c ****   {
 951:Drivers/STM32L4xx_HAL_Driver/Src/stm32l4xx_hal_uart.c ****     if((pData == NULL ) || (Size == 0))
 1709              		.loc 1 951 0
 1710 001a BB68     		ldr	r3, [r7, #8]
 1711 001c 002B     		cmp	r3, #0
 1712 001e 02D0     		beq	.L92
 1713              		.loc 1 951 0 is_stmt 0 discriminator 1
 1714 0020 FB88     		ldrh	r3, [r7, #6]
 1715 0022 002B     		cmp	r3, #0
 1716 0024 01D1     		bne	.L93
 1717              	.L92:
 952:Drivers/STM32L4xx_HAL_Driver/Src/stm32l4xx_hal_uart.c ****     {
 953:Drivers/STM32L4xx_HAL_Driver/Src/stm32l4xx_hal_uart.c ****       return HAL_ERROR;
 1718              		.loc 1 953 0 is_stmt 1
 1719 0026 0123     		movs	r3, #1
 1720 0028 53E0     		b	.L94
 1721              	.L93:
 954:Drivers/STM32L4xx_HAL_Driver/Src/stm32l4xx_hal_uart.c ****     }
 955:Drivers/STM32L4xx_HAL_Driver/Src/stm32l4xx_hal_uart.c **** 
 956:Drivers/STM32L4xx_HAL_Driver/Src/stm32l4xx_hal_uart.c ****     /* Process Locked */
 957:Drivers/STM32L4xx_HAL_Driver/Src/stm32l4xx_hal_uart.c ****     __HAL_LOCK(huart);
 1722              		.loc 1 957 0
 1723 002a FB68     		ldr	r3, [r7, #12]
 1724 002c 93F86830 		ldrb	r3, [r3, #104]	@ zero_extendqisi2
 1725 0030 012B     		cmp	r3, #1
 1726 0032 01D1     		bne	.L95
 1727              		.loc 1 957 0 is_stmt 0 discriminator 1
 1728 0034 0223     		movs	r3, #2
 1729 0036 4CE0     		b	.L94
 1730              	.L95:
 1731              		.loc 1 957 0 discriminator 2
 1732 0038 FB68     		ldr	r3, [r7, #12]
 1733 003a 0122     		movs	r2, #1
 1734 003c 83F86820 		strb	r2, [r3, #104]
 958:Drivers/STM32L4xx_HAL_Driver/Src/stm32l4xx_hal_uart.c **** 
 959:Drivers/STM32L4xx_HAL_Driver/Src/stm32l4xx_hal_uart.c ****     huart->pRxBuffPtr = pData;
 1735              		.loc 1 959 0 is_stmt 1 discriminator 2
 1736 0040 FB68     		ldr	r3, [r7, #12]
 1737 0042 BA68     		ldr	r2, [r7, #8]
 1738 0044 5A65     		str	r2, [r3, #84]
 960:Drivers/STM32L4xx_HAL_Driver/Src/stm32l4xx_hal_uart.c ****     huart->RxXferSize = Size;
 1739              		.loc 1 960 0 discriminator 2
 1740 0046 FB68     		ldr	r3, [r7, #12]
 1741 0048 FA88     		ldrh	r2, [r7, #6]	@ movhi
 1742 004a A3F85820 		strh	r2, [r3, #88]	@ movhi
ARM GAS  /tmp/ccMdFX4h.s 			page 48


 961:Drivers/STM32L4xx_HAL_Driver/Src/stm32l4xx_hal_uart.c **** 
 962:Drivers/STM32L4xx_HAL_Driver/Src/stm32l4xx_hal_uart.c ****     huart->ErrorCode = HAL_UART_ERROR_NONE;
 1743              		.loc 1 962 0 discriminator 2
 1744 004e FB68     		ldr	r3, [r7, #12]
 1745 0050 0022     		movs	r2, #0
 1746 0052 DA66     		str	r2, [r3, #108]
 963:Drivers/STM32L4xx_HAL_Driver/Src/stm32l4xx_hal_uart.c ****     huart->RxState = HAL_UART_STATE_BUSY_RX;
 1747              		.loc 1 963 0 discriminator 2
 1748 0054 FB68     		ldr	r3, [r7, #12]
 1749 0056 2222     		movs	r2, #34
 1750 0058 83F86A20 		strb	r2, [r3, #106]
 964:Drivers/STM32L4xx_HAL_Driver/Src/stm32l4xx_hal_uart.c **** 
 965:Drivers/STM32L4xx_HAL_Driver/Src/stm32l4xx_hal_uart.c ****     /* Set the UART DMA transfer complete callback */
 966:Drivers/STM32L4xx_HAL_Driver/Src/stm32l4xx_hal_uart.c ****     huart->hdmarx->XferCpltCallback = UART_DMAReceiveCplt;
 1751              		.loc 1 966 0 discriminator 2
 1752 005c FB68     		ldr	r3, [r7, #12]
 1753 005e 5B6E     		ldr	r3, [r3, #100]
 1754 0060 1E4A     		ldr	r2, .L96
 1755 0062 DA62     		str	r2, [r3, #44]
 967:Drivers/STM32L4xx_HAL_Driver/Src/stm32l4xx_hal_uart.c **** 
 968:Drivers/STM32L4xx_HAL_Driver/Src/stm32l4xx_hal_uart.c ****     /* Set the UART DMA Half transfer complete callback */
 969:Drivers/STM32L4xx_HAL_Driver/Src/stm32l4xx_hal_uart.c ****     huart->hdmarx->XferHalfCpltCallback = UART_DMARxHalfCplt;
 1756              		.loc 1 969 0 discriminator 2
 1757 0064 FB68     		ldr	r3, [r7, #12]
 1758 0066 5B6E     		ldr	r3, [r3, #100]
 1759 0068 1D4A     		ldr	r2, .L96+4
 1760 006a 1A63     		str	r2, [r3, #48]
 970:Drivers/STM32L4xx_HAL_Driver/Src/stm32l4xx_hal_uart.c **** 
 971:Drivers/STM32L4xx_HAL_Driver/Src/stm32l4xx_hal_uart.c ****     /* Set the DMA error callback */
 972:Drivers/STM32L4xx_HAL_Driver/Src/stm32l4xx_hal_uart.c ****     huart->hdmarx->XferErrorCallback = UART_DMAError;
 1761              		.loc 1 972 0 discriminator 2
 1762 006c FB68     		ldr	r3, [r7, #12]
 1763 006e 5B6E     		ldr	r3, [r3, #100]
 1764 0070 1C4A     		ldr	r2, .L96+8
 1765 0072 5A63     		str	r2, [r3, #52]
 973:Drivers/STM32L4xx_HAL_Driver/Src/stm32l4xx_hal_uart.c **** 
 974:Drivers/STM32L4xx_HAL_Driver/Src/stm32l4xx_hal_uart.c ****     /* Set the DMA abort callback */
 975:Drivers/STM32L4xx_HAL_Driver/Src/stm32l4xx_hal_uart.c ****     huart->hdmarx->XferAbortCallback = NULL;
 1766              		.loc 1 975 0 discriminator 2
 1767 0074 FB68     		ldr	r3, [r7, #12]
 1768 0076 5B6E     		ldr	r3, [r3, #100]
 1769 0078 0022     		movs	r2, #0
 1770 007a 9A63     		str	r2, [r3, #56]
 976:Drivers/STM32L4xx_HAL_Driver/Src/stm32l4xx_hal_uart.c **** 
 977:Drivers/STM32L4xx_HAL_Driver/Src/stm32l4xx_hal_uart.c ****     /* Enable the DMA channel */
 978:Drivers/STM32L4xx_HAL_Driver/Src/stm32l4xx_hal_uart.c ****     HAL_DMA_Start_IT(huart->hdmarx, (uint32_t)&huart->Instance->RDR, (uint32_t)huart->pRxBuffPtr, S
 1771              		.loc 1 978 0 discriminator 2
 1772 007c FB68     		ldr	r3, [r7, #12]
 1773 007e 586E     		ldr	r0, [r3, #100]
 1774 0080 FB68     		ldr	r3, [r7, #12]
 1775 0082 1B68     		ldr	r3, [r3]
 1776 0084 2433     		adds	r3, r3, #36
 1777 0086 1946     		mov	r1, r3
 1778 0088 FB68     		ldr	r3, [r7, #12]
 1779 008a 5B6D     		ldr	r3, [r3, #84]
 1780 008c 1A46     		mov	r2, r3
 1781 008e FB88     		ldrh	r3, [r7, #6]
ARM GAS  /tmp/ccMdFX4h.s 			page 49


 1782 0090 FFF7FEFF 		bl	HAL_DMA_Start_IT
 979:Drivers/STM32L4xx_HAL_Driver/Src/stm32l4xx_hal_uart.c **** 
 980:Drivers/STM32L4xx_HAL_Driver/Src/stm32l4xx_hal_uart.c ****     /* Process Unlocked */
 981:Drivers/STM32L4xx_HAL_Driver/Src/stm32l4xx_hal_uart.c ****     __HAL_UNLOCK(huart);
 1783              		.loc 1 981 0 discriminator 2
 1784 0094 FB68     		ldr	r3, [r7, #12]
 1785 0096 0022     		movs	r2, #0
 1786 0098 83F86820 		strb	r2, [r3, #104]
 982:Drivers/STM32L4xx_HAL_Driver/Src/stm32l4xx_hal_uart.c **** 
 983:Drivers/STM32L4xx_HAL_Driver/Src/stm32l4xx_hal_uart.c ****     /* Enable the UART Parity Error Interrupt */
 984:Drivers/STM32L4xx_HAL_Driver/Src/stm32l4xx_hal_uart.c ****     SET_BIT(huart->Instance->CR1, USART_CR1_PEIE);
 1787              		.loc 1 984 0 discriminator 2
 1788 009c FB68     		ldr	r3, [r7, #12]
 1789 009e 1B68     		ldr	r3, [r3]
 1790 00a0 FA68     		ldr	r2, [r7, #12]
 1791 00a2 1268     		ldr	r2, [r2]
 1792 00a4 1268     		ldr	r2, [r2]
 1793 00a6 42F48072 		orr	r2, r2, #256
 1794 00aa 1A60     		str	r2, [r3]
 985:Drivers/STM32L4xx_HAL_Driver/Src/stm32l4xx_hal_uart.c **** 
 986:Drivers/STM32L4xx_HAL_Driver/Src/stm32l4xx_hal_uart.c ****     /* Enable the UART Error Interrupt: (Frame error, noise error, overrun error) */
 987:Drivers/STM32L4xx_HAL_Driver/Src/stm32l4xx_hal_uart.c ****     SET_BIT(huart->Instance->CR3, USART_CR3_EIE);
 1795              		.loc 1 987 0 discriminator 2
 1796 00ac FB68     		ldr	r3, [r7, #12]
 1797 00ae 1B68     		ldr	r3, [r3]
 1798 00b0 FA68     		ldr	r2, [r7, #12]
 1799 00b2 1268     		ldr	r2, [r2]
 1800 00b4 9268     		ldr	r2, [r2, #8]
 1801 00b6 42F00102 		orr	r2, r2, #1
 1802 00ba 9A60     		str	r2, [r3, #8]
 988:Drivers/STM32L4xx_HAL_Driver/Src/stm32l4xx_hal_uart.c **** 
 989:Drivers/STM32L4xx_HAL_Driver/Src/stm32l4xx_hal_uart.c ****     /* Enable the DMA transfer for the receiver request by setting the DMAR bit
 990:Drivers/STM32L4xx_HAL_Driver/Src/stm32l4xx_hal_uart.c ****        in the UART CR3 register */
 991:Drivers/STM32L4xx_HAL_Driver/Src/stm32l4xx_hal_uart.c ****     SET_BIT(huart->Instance->CR3, USART_CR3_DMAR);
 1803              		.loc 1 991 0 discriminator 2
 1804 00bc FB68     		ldr	r3, [r7, #12]
 1805 00be 1B68     		ldr	r3, [r3]
 1806 00c0 FA68     		ldr	r2, [r7, #12]
 1807 00c2 1268     		ldr	r2, [r2]
 1808 00c4 9268     		ldr	r2, [r2, #8]
 1809 00c6 42F04002 		orr	r2, r2, #64
 1810 00ca 9A60     		str	r2, [r3, #8]
 992:Drivers/STM32L4xx_HAL_Driver/Src/stm32l4xx_hal_uart.c **** 
 993:Drivers/STM32L4xx_HAL_Driver/Src/stm32l4xx_hal_uart.c ****     return HAL_OK;
 1811              		.loc 1 993 0 discriminator 2
 1812 00cc 0023     		movs	r3, #0
 1813 00ce 00E0     		b	.L94
 1814              	.L91:
 994:Drivers/STM32L4xx_HAL_Driver/Src/stm32l4xx_hal_uart.c ****   }
 995:Drivers/STM32L4xx_HAL_Driver/Src/stm32l4xx_hal_uart.c ****   else
 996:Drivers/STM32L4xx_HAL_Driver/Src/stm32l4xx_hal_uart.c ****   {
 997:Drivers/STM32L4xx_HAL_Driver/Src/stm32l4xx_hal_uart.c ****     return HAL_BUSY;
 1815              		.loc 1 997 0
 1816 00d0 0223     		movs	r3, #2
 1817              	.L94:
 998:Drivers/STM32L4xx_HAL_Driver/Src/stm32l4xx_hal_uart.c ****   }
 999:Drivers/STM32L4xx_HAL_Driver/Src/stm32l4xx_hal_uart.c **** }
ARM GAS  /tmp/ccMdFX4h.s 			page 50


 1818              		.loc 1 999 0
 1819 00d2 1846     		mov	r0, r3
 1820 00d4 1037     		adds	r7, r7, #16
 1821              	.LCFI67:
 1822              		.cfi_def_cfa_offset 8
 1823 00d6 BD46     		mov	sp, r7
 1824              	.LCFI68:
 1825              		.cfi_def_cfa_register 13
 1826              		@ sp needed
 1827 00d8 80BD     		pop	{r7, pc}
 1828              	.L97:
 1829 00da 00BF     		.align	2
 1830              	.L96:
 1831 00dc 00000000 		.word	UART_DMAReceiveCplt
 1832 00e0 00000000 		.word	UART_DMARxHalfCplt
 1833 00e4 00000000 		.word	UART_DMAError
 1834              		.cfi_endproc
 1835              	.LFE138:
 1837              		.section	.text.HAL_UART_DMAPause,"ax",%progbits
 1838              		.align	1
 1839              		.global	HAL_UART_DMAPause
 1840              		.syntax unified
 1841              		.thumb
 1842              		.thumb_func
 1843              		.fpu fpv4-sp-d16
 1845              	HAL_UART_DMAPause:
 1846              	.LFB139:
1000:Drivers/STM32L4xx_HAL_Driver/Src/stm32l4xx_hal_uart.c **** 
1001:Drivers/STM32L4xx_HAL_Driver/Src/stm32l4xx_hal_uart.c **** /**
1002:Drivers/STM32L4xx_HAL_Driver/Src/stm32l4xx_hal_uart.c ****   * @brief Pause the DMA Transfer.
1003:Drivers/STM32L4xx_HAL_Driver/Src/stm32l4xx_hal_uart.c ****   * @param huart: UART handle.
1004:Drivers/STM32L4xx_HAL_Driver/Src/stm32l4xx_hal_uart.c ****   * @retval HAL status
1005:Drivers/STM32L4xx_HAL_Driver/Src/stm32l4xx_hal_uart.c ****   */
1006:Drivers/STM32L4xx_HAL_Driver/Src/stm32l4xx_hal_uart.c **** HAL_StatusTypeDef HAL_UART_DMAPause(UART_HandleTypeDef *huart)
1007:Drivers/STM32L4xx_HAL_Driver/Src/stm32l4xx_hal_uart.c **** {
 1847              		.loc 1 1007 0
 1848              		.cfi_startproc
 1849              		@ args = 0, pretend = 0, frame = 8
 1850              		@ frame_needed = 1, uses_anonymous_args = 0
 1851              		@ link register save eliminated.
 1852 0000 80B4     		push	{r7}
 1853              	.LCFI69:
 1854              		.cfi_def_cfa_offset 4
 1855              		.cfi_offset 7, -4
 1856 0002 83B0     		sub	sp, sp, #12
 1857              	.LCFI70:
 1858              		.cfi_def_cfa_offset 16
 1859 0004 00AF     		add	r7, sp, #0
 1860              	.LCFI71:
 1861              		.cfi_def_cfa_register 7
 1862 0006 7860     		str	r0, [r7, #4]
1008:Drivers/STM32L4xx_HAL_Driver/Src/stm32l4xx_hal_uart.c ****   /* Process Locked */
1009:Drivers/STM32L4xx_HAL_Driver/Src/stm32l4xx_hal_uart.c ****   __HAL_LOCK(huart);
 1863              		.loc 1 1009 0
 1864 0008 7B68     		ldr	r3, [r7, #4]
 1865 000a 93F86830 		ldrb	r3, [r3, #104]	@ zero_extendqisi2
 1866 000e 012B     		cmp	r3, #1
ARM GAS  /tmp/ccMdFX4h.s 			page 51


 1867 0010 01D1     		bne	.L99
 1868              		.loc 1 1009 0 is_stmt 0 discriminator 1
 1869 0012 0223     		movs	r3, #2
 1870 0014 42E0     		b	.L100
 1871              	.L99:
 1872              		.loc 1 1009 0 discriminator 2
 1873 0016 7B68     		ldr	r3, [r7, #4]
 1874 0018 0122     		movs	r2, #1
 1875 001a 83F86820 		strb	r2, [r3, #104]
1010:Drivers/STM32L4xx_HAL_Driver/Src/stm32l4xx_hal_uart.c **** 
1011:Drivers/STM32L4xx_HAL_Driver/Src/stm32l4xx_hal_uart.c ****   if ((huart->gState == HAL_UART_STATE_BUSY_TX) &&
 1876              		.loc 1 1011 0 is_stmt 1 discriminator 2
 1877 001e 7B68     		ldr	r3, [r7, #4]
 1878 0020 93F86930 		ldrb	r3, [r3, #105]
 1879 0024 DBB2     		uxtb	r3, r3
 1880 0026 212B     		cmp	r3, #33
 1881 0028 0ED1     		bne	.L101
1012:Drivers/STM32L4xx_HAL_Driver/Src/stm32l4xx_hal_uart.c ****       (HAL_IS_BIT_SET(huart->Instance->CR3, USART_CR3_DMAT)))
 1882              		.loc 1 1012 0 discriminator 1
 1883 002a 7B68     		ldr	r3, [r7, #4]
 1884 002c 1B68     		ldr	r3, [r3]
 1885 002e 9B68     		ldr	r3, [r3, #8]
 1886 0030 03F08003 		and	r3, r3, #128
1011:Drivers/STM32L4xx_HAL_Driver/Src/stm32l4xx_hal_uart.c ****       (HAL_IS_BIT_SET(huart->Instance->CR3, USART_CR3_DMAT)))
 1887              		.loc 1 1011 0 discriminator 1
 1888 0034 802B     		cmp	r3, #128
 1889 0036 07D1     		bne	.L101
1013:Drivers/STM32L4xx_HAL_Driver/Src/stm32l4xx_hal_uart.c ****   {
1014:Drivers/STM32L4xx_HAL_Driver/Src/stm32l4xx_hal_uart.c ****     /* Disable the UART DMA Tx request */
1015:Drivers/STM32L4xx_HAL_Driver/Src/stm32l4xx_hal_uart.c ****     CLEAR_BIT(huart->Instance->CR3, USART_CR3_DMAT);
 1890              		.loc 1 1015 0
 1891 0038 7B68     		ldr	r3, [r7, #4]
 1892 003a 1B68     		ldr	r3, [r3]
 1893 003c 7A68     		ldr	r2, [r7, #4]
 1894 003e 1268     		ldr	r2, [r2]
 1895 0040 9268     		ldr	r2, [r2, #8]
 1896 0042 22F08002 		bic	r2, r2, #128
 1897 0046 9A60     		str	r2, [r3, #8]
 1898              	.L101:
1016:Drivers/STM32L4xx_HAL_Driver/Src/stm32l4xx_hal_uart.c ****   }
1017:Drivers/STM32L4xx_HAL_Driver/Src/stm32l4xx_hal_uart.c ****   if ((huart->RxState == HAL_UART_STATE_BUSY_RX) &&
 1899              		.loc 1 1017 0
 1900 0048 7B68     		ldr	r3, [r7, #4]
 1901 004a 93F86A30 		ldrb	r3, [r3, #106]
 1902 004e DBB2     		uxtb	r3, r3
 1903 0050 222B     		cmp	r3, #34
 1904 0052 1ED1     		bne	.L102
1018:Drivers/STM32L4xx_HAL_Driver/Src/stm32l4xx_hal_uart.c ****       (HAL_IS_BIT_SET(huart->Instance->CR3, USART_CR3_DMAR)))
 1905              		.loc 1 1018 0 discriminator 1
 1906 0054 7B68     		ldr	r3, [r7, #4]
 1907 0056 1B68     		ldr	r3, [r3]
 1908 0058 9B68     		ldr	r3, [r3, #8]
 1909 005a 03F04003 		and	r3, r3, #64
1017:Drivers/STM32L4xx_HAL_Driver/Src/stm32l4xx_hal_uart.c ****       (HAL_IS_BIT_SET(huart->Instance->CR3, USART_CR3_DMAR)))
 1910              		.loc 1 1017 0 discriminator 1
 1911 005e 402B     		cmp	r3, #64
 1912 0060 17D1     		bne	.L102
ARM GAS  /tmp/ccMdFX4h.s 			page 52


1019:Drivers/STM32L4xx_HAL_Driver/Src/stm32l4xx_hal_uart.c ****   {
1020:Drivers/STM32L4xx_HAL_Driver/Src/stm32l4xx_hal_uart.c ****     /* Disable PE and ERR (Frame error, noise error, overrun error) interrupts */
1021:Drivers/STM32L4xx_HAL_Driver/Src/stm32l4xx_hal_uart.c ****     CLEAR_BIT(huart->Instance->CR1, USART_CR1_PEIE);
 1913              		.loc 1 1021 0
 1914 0062 7B68     		ldr	r3, [r7, #4]
 1915 0064 1B68     		ldr	r3, [r3]
 1916 0066 7A68     		ldr	r2, [r7, #4]
 1917 0068 1268     		ldr	r2, [r2]
 1918 006a 1268     		ldr	r2, [r2]
 1919 006c 22F48072 		bic	r2, r2, #256
 1920 0070 1A60     		str	r2, [r3]
1022:Drivers/STM32L4xx_HAL_Driver/Src/stm32l4xx_hal_uart.c ****     CLEAR_BIT(huart->Instance->CR3, USART_CR3_EIE);
 1921              		.loc 1 1022 0
 1922 0072 7B68     		ldr	r3, [r7, #4]
 1923 0074 1B68     		ldr	r3, [r3]
 1924 0076 7A68     		ldr	r2, [r7, #4]
 1925 0078 1268     		ldr	r2, [r2]
 1926 007a 9268     		ldr	r2, [r2, #8]
 1927 007c 22F00102 		bic	r2, r2, #1
 1928 0080 9A60     		str	r2, [r3, #8]
1023:Drivers/STM32L4xx_HAL_Driver/Src/stm32l4xx_hal_uart.c **** 
1024:Drivers/STM32L4xx_HAL_Driver/Src/stm32l4xx_hal_uart.c ****     /* Disable the UART DMA Rx request */
1025:Drivers/STM32L4xx_HAL_Driver/Src/stm32l4xx_hal_uart.c ****     CLEAR_BIT(huart->Instance->CR3, USART_CR3_DMAR);
 1929              		.loc 1 1025 0
 1930 0082 7B68     		ldr	r3, [r7, #4]
 1931 0084 1B68     		ldr	r3, [r3]
 1932 0086 7A68     		ldr	r2, [r7, #4]
 1933 0088 1268     		ldr	r2, [r2]
 1934 008a 9268     		ldr	r2, [r2, #8]
 1935 008c 22F04002 		bic	r2, r2, #64
 1936 0090 9A60     		str	r2, [r3, #8]
 1937              	.L102:
1026:Drivers/STM32L4xx_HAL_Driver/Src/stm32l4xx_hal_uart.c ****   }
1027:Drivers/STM32L4xx_HAL_Driver/Src/stm32l4xx_hal_uart.c **** 
1028:Drivers/STM32L4xx_HAL_Driver/Src/stm32l4xx_hal_uart.c ****   /* Process Unlocked */
1029:Drivers/STM32L4xx_HAL_Driver/Src/stm32l4xx_hal_uart.c ****   __HAL_UNLOCK(huart);
 1938              		.loc 1 1029 0
 1939 0092 7B68     		ldr	r3, [r7, #4]
 1940 0094 0022     		movs	r2, #0
 1941 0096 83F86820 		strb	r2, [r3, #104]
1030:Drivers/STM32L4xx_HAL_Driver/Src/stm32l4xx_hal_uart.c **** 
1031:Drivers/STM32L4xx_HAL_Driver/Src/stm32l4xx_hal_uart.c ****   return HAL_OK;
 1942              		.loc 1 1031 0
 1943 009a 0023     		movs	r3, #0
 1944              	.L100:
1032:Drivers/STM32L4xx_HAL_Driver/Src/stm32l4xx_hal_uart.c **** }
 1945              		.loc 1 1032 0
 1946 009c 1846     		mov	r0, r3
 1947 009e 0C37     		adds	r7, r7, #12
 1948              	.LCFI72:
 1949              		.cfi_def_cfa_offset 4
 1950 00a0 BD46     		mov	sp, r7
 1951              	.LCFI73:
 1952              		.cfi_def_cfa_register 13
 1953              		@ sp needed
 1954 00a2 5DF8047B 		ldr	r7, [sp], #4
 1955              	.LCFI74:
ARM GAS  /tmp/ccMdFX4h.s 			page 53


 1956              		.cfi_restore 7
 1957              		.cfi_def_cfa_offset 0
 1958 00a6 7047     		bx	lr
 1959              		.cfi_endproc
 1960              	.LFE139:
 1962              		.section	.text.HAL_UART_DMAResume,"ax",%progbits
 1963              		.align	1
 1964              		.global	HAL_UART_DMAResume
 1965              		.syntax unified
 1966              		.thumb
 1967              		.thumb_func
 1968              		.fpu fpv4-sp-d16
 1970              	HAL_UART_DMAResume:
 1971              	.LFB140:
1033:Drivers/STM32L4xx_HAL_Driver/Src/stm32l4xx_hal_uart.c **** 
1034:Drivers/STM32L4xx_HAL_Driver/Src/stm32l4xx_hal_uart.c **** /**
1035:Drivers/STM32L4xx_HAL_Driver/Src/stm32l4xx_hal_uart.c ****   * @brief Resume the DMA Transfer.
1036:Drivers/STM32L4xx_HAL_Driver/Src/stm32l4xx_hal_uart.c ****   * @param huart: UART handle.
1037:Drivers/STM32L4xx_HAL_Driver/Src/stm32l4xx_hal_uart.c ****   * @retval HAL status
1038:Drivers/STM32L4xx_HAL_Driver/Src/stm32l4xx_hal_uart.c ****   */
1039:Drivers/STM32L4xx_HAL_Driver/Src/stm32l4xx_hal_uart.c **** HAL_StatusTypeDef HAL_UART_DMAResume(UART_HandleTypeDef *huart)
1040:Drivers/STM32L4xx_HAL_Driver/Src/stm32l4xx_hal_uart.c **** {
 1972              		.loc 1 1040 0
 1973              		.cfi_startproc
 1974              		@ args = 0, pretend = 0, frame = 8
 1975              		@ frame_needed = 1, uses_anonymous_args = 0
 1976              		@ link register save eliminated.
 1977 0000 80B4     		push	{r7}
 1978              	.LCFI75:
 1979              		.cfi_def_cfa_offset 4
 1980              		.cfi_offset 7, -4
 1981 0002 83B0     		sub	sp, sp, #12
 1982              	.LCFI76:
 1983              		.cfi_def_cfa_offset 16
 1984 0004 00AF     		add	r7, sp, #0
 1985              	.LCFI77:
 1986              		.cfi_def_cfa_register 7
 1987 0006 7860     		str	r0, [r7, #4]
1041:Drivers/STM32L4xx_HAL_Driver/Src/stm32l4xx_hal_uart.c ****   /* Process Locked */
1042:Drivers/STM32L4xx_HAL_Driver/Src/stm32l4xx_hal_uart.c ****   __HAL_LOCK(huart);
 1988              		.loc 1 1042 0
 1989 0008 7B68     		ldr	r3, [r7, #4]
 1990 000a 93F86830 		ldrb	r3, [r3, #104]	@ zero_extendqisi2
 1991 000e 012B     		cmp	r3, #1
 1992 0010 01D1     		bne	.L104
 1993              		.loc 1 1042 0 is_stmt 0 discriminator 1
 1994 0012 0223     		movs	r3, #2
 1995 0014 38E0     		b	.L105
 1996              	.L104:
 1997              		.loc 1 1042 0 discriminator 2
 1998 0016 7B68     		ldr	r3, [r7, #4]
 1999 0018 0122     		movs	r2, #1
 2000 001a 83F86820 		strb	r2, [r3, #104]
1043:Drivers/STM32L4xx_HAL_Driver/Src/stm32l4xx_hal_uart.c **** 
1044:Drivers/STM32L4xx_HAL_Driver/Src/stm32l4xx_hal_uart.c ****   if(huart->gState == HAL_UART_STATE_BUSY_TX)
 2001              		.loc 1 1044 0 is_stmt 1 discriminator 2
 2002 001e 7B68     		ldr	r3, [r7, #4]
ARM GAS  /tmp/ccMdFX4h.s 			page 54


 2003 0020 93F86930 		ldrb	r3, [r3, #105]
 2004 0024 DBB2     		uxtb	r3, r3
 2005 0026 212B     		cmp	r3, #33
 2006 0028 07D1     		bne	.L106
1045:Drivers/STM32L4xx_HAL_Driver/Src/stm32l4xx_hal_uart.c ****   {
1046:Drivers/STM32L4xx_HAL_Driver/Src/stm32l4xx_hal_uart.c ****     /* Enable the UART DMA Tx request */
1047:Drivers/STM32L4xx_HAL_Driver/Src/stm32l4xx_hal_uart.c ****     SET_BIT(huart->Instance->CR3, USART_CR3_DMAT);
 2007              		.loc 1 1047 0
 2008 002a 7B68     		ldr	r3, [r7, #4]
 2009 002c 1B68     		ldr	r3, [r3]
 2010 002e 7A68     		ldr	r2, [r7, #4]
 2011 0030 1268     		ldr	r2, [r2]
 2012 0032 9268     		ldr	r2, [r2, #8]
 2013 0034 42F08002 		orr	r2, r2, #128
 2014 0038 9A60     		str	r2, [r3, #8]
 2015              	.L106:
1048:Drivers/STM32L4xx_HAL_Driver/Src/stm32l4xx_hal_uart.c ****   }
1049:Drivers/STM32L4xx_HAL_Driver/Src/stm32l4xx_hal_uart.c ****   if(huart->RxState == HAL_UART_STATE_BUSY_RX)
 2016              		.loc 1 1049 0
 2017 003a 7B68     		ldr	r3, [r7, #4]
 2018 003c 93F86A30 		ldrb	r3, [r3, #106]
 2019 0040 DBB2     		uxtb	r3, r3
 2020 0042 222B     		cmp	r3, #34
 2021 0044 1BD1     		bne	.L107
1050:Drivers/STM32L4xx_HAL_Driver/Src/stm32l4xx_hal_uart.c ****   {
1051:Drivers/STM32L4xx_HAL_Driver/Src/stm32l4xx_hal_uart.c ****     /* Clear the Overrun flag before resuming the Rx transfer */
1052:Drivers/STM32L4xx_HAL_Driver/Src/stm32l4xx_hal_uart.c ****     __HAL_UART_CLEAR_FLAG(huart, UART_CLEAR_OREF);
 2022              		.loc 1 1052 0
 2023 0046 7B68     		ldr	r3, [r7, #4]
 2024 0048 1B68     		ldr	r3, [r3]
 2025 004a 0822     		movs	r2, #8
 2026 004c 1A62     		str	r2, [r3, #32]
1053:Drivers/STM32L4xx_HAL_Driver/Src/stm32l4xx_hal_uart.c **** 
1054:Drivers/STM32L4xx_HAL_Driver/Src/stm32l4xx_hal_uart.c ****     /* Reenable PE and ERR (Frame error, noise error, overrun error) interrupts */
1055:Drivers/STM32L4xx_HAL_Driver/Src/stm32l4xx_hal_uart.c ****     SET_BIT(huart->Instance->CR1, USART_CR1_PEIE);
 2027              		.loc 1 1055 0
 2028 004e 7B68     		ldr	r3, [r7, #4]
 2029 0050 1B68     		ldr	r3, [r3]
 2030 0052 7A68     		ldr	r2, [r7, #4]
 2031 0054 1268     		ldr	r2, [r2]
 2032 0056 1268     		ldr	r2, [r2]
 2033 0058 42F48072 		orr	r2, r2, #256
 2034 005c 1A60     		str	r2, [r3]
1056:Drivers/STM32L4xx_HAL_Driver/Src/stm32l4xx_hal_uart.c ****     SET_BIT(huart->Instance->CR3, USART_CR3_EIE);
 2035              		.loc 1 1056 0
 2036 005e 7B68     		ldr	r3, [r7, #4]
 2037 0060 1B68     		ldr	r3, [r3]
 2038 0062 7A68     		ldr	r2, [r7, #4]
 2039 0064 1268     		ldr	r2, [r2]
 2040 0066 9268     		ldr	r2, [r2, #8]
 2041 0068 42F00102 		orr	r2, r2, #1
 2042 006c 9A60     		str	r2, [r3, #8]
1057:Drivers/STM32L4xx_HAL_Driver/Src/stm32l4xx_hal_uart.c **** 
1058:Drivers/STM32L4xx_HAL_Driver/Src/stm32l4xx_hal_uart.c ****     /* Enable the UART DMA Rx request */
1059:Drivers/STM32L4xx_HAL_Driver/Src/stm32l4xx_hal_uart.c ****     SET_BIT(huart->Instance->CR3, USART_CR3_DMAR);
 2043              		.loc 1 1059 0
 2044 006e 7B68     		ldr	r3, [r7, #4]
ARM GAS  /tmp/ccMdFX4h.s 			page 55


 2045 0070 1B68     		ldr	r3, [r3]
 2046 0072 7A68     		ldr	r2, [r7, #4]
 2047 0074 1268     		ldr	r2, [r2]
 2048 0076 9268     		ldr	r2, [r2, #8]
 2049 0078 42F04002 		orr	r2, r2, #64
 2050 007c 9A60     		str	r2, [r3, #8]
 2051              	.L107:
1060:Drivers/STM32L4xx_HAL_Driver/Src/stm32l4xx_hal_uart.c ****   }
1061:Drivers/STM32L4xx_HAL_Driver/Src/stm32l4xx_hal_uart.c **** 
1062:Drivers/STM32L4xx_HAL_Driver/Src/stm32l4xx_hal_uart.c ****   /* Process Unlocked */
1063:Drivers/STM32L4xx_HAL_Driver/Src/stm32l4xx_hal_uart.c ****   __HAL_UNLOCK(huart);
 2052              		.loc 1 1063 0
 2053 007e 7B68     		ldr	r3, [r7, #4]
 2054 0080 0022     		movs	r2, #0
 2055 0082 83F86820 		strb	r2, [r3, #104]
1064:Drivers/STM32L4xx_HAL_Driver/Src/stm32l4xx_hal_uart.c **** 
1065:Drivers/STM32L4xx_HAL_Driver/Src/stm32l4xx_hal_uart.c ****   return HAL_OK;
 2056              		.loc 1 1065 0
 2057 0086 0023     		movs	r3, #0
 2058              	.L105:
1066:Drivers/STM32L4xx_HAL_Driver/Src/stm32l4xx_hal_uart.c **** }
 2059              		.loc 1 1066 0
 2060 0088 1846     		mov	r0, r3
 2061 008a 0C37     		adds	r7, r7, #12
 2062              	.LCFI78:
 2063              		.cfi_def_cfa_offset 4
 2064 008c BD46     		mov	sp, r7
 2065              	.LCFI79:
 2066              		.cfi_def_cfa_register 13
 2067              		@ sp needed
 2068 008e 5DF8047B 		ldr	r7, [sp], #4
 2069              	.LCFI80:
 2070              		.cfi_restore 7
 2071              		.cfi_def_cfa_offset 0
 2072 0092 7047     		bx	lr
 2073              		.cfi_endproc
 2074              	.LFE140:
 2076              		.section	.text.HAL_UART_DMAStop,"ax",%progbits
 2077              		.align	1
 2078              		.global	HAL_UART_DMAStop
 2079              		.syntax unified
 2080              		.thumb
 2081              		.thumb_func
 2082              		.fpu fpv4-sp-d16
 2084              	HAL_UART_DMAStop:
 2085              	.LFB141:
1067:Drivers/STM32L4xx_HAL_Driver/Src/stm32l4xx_hal_uart.c **** 
1068:Drivers/STM32L4xx_HAL_Driver/Src/stm32l4xx_hal_uart.c **** /**
1069:Drivers/STM32L4xx_HAL_Driver/Src/stm32l4xx_hal_uart.c ****   * @brief Stop the DMA Transfer.
1070:Drivers/STM32L4xx_HAL_Driver/Src/stm32l4xx_hal_uart.c ****   * @param huart: UART handle.
1071:Drivers/STM32L4xx_HAL_Driver/Src/stm32l4xx_hal_uart.c ****   * @retval HAL status
1072:Drivers/STM32L4xx_HAL_Driver/Src/stm32l4xx_hal_uart.c ****   */
1073:Drivers/STM32L4xx_HAL_Driver/Src/stm32l4xx_hal_uart.c **** HAL_StatusTypeDef HAL_UART_DMAStop(UART_HandleTypeDef *huart)
1074:Drivers/STM32L4xx_HAL_Driver/Src/stm32l4xx_hal_uart.c **** {
 2086              		.loc 1 1074 0
 2087              		.cfi_startproc
 2088              		@ args = 0, pretend = 0, frame = 8
ARM GAS  /tmp/ccMdFX4h.s 			page 56


 2089              		@ frame_needed = 1, uses_anonymous_args = 0
 2090 0000 80B5     		push	{r7, lr}
 2091              	.LCFI81:
 2092              		.cfi_def_cfa_offset 8
 2093              		.cfi_offset 7, -8
 2094              		.cfi_offset 14, -4
 2095 0002 82B0     		sub	sp, sp, #8
 2096              	.LCFI82:
 2097              		.cfi_def_cfa_offset 16
 2098 0004 00AF     		add	r7, sp, #0
 2099              	.LCFI83:
 2100              		.cfi_def_cfa_register 7
 2101 0006 7860     		str	r0, [r7, #4]
1075:Drivers/STM32L4xx_HAL_Driver/Src/stm32l4xx_hal_uart.c ****   /* The Lock is not implemented on this API to allow the user application
1076:Drivers/STM32L4xx_HAL_Driver/Src/stm32l4xx_hal_uart.c ****      to call the HAL UART API under callbacks HAL_UART_TxCpltCallback() / HAL_UART_RxCpltCallback()
1077:Drivers/STM32L4xx_HAL_Driver/Src/stm32l4xx_hal_uart.c ****      HAL_UART_TxHalfCpltCallback / HAL_UART_RxHalfCpltCallback: 
1078:Drivers/STM32L4xx_HAL_Driver/Src/stm32l4xx_hal_uart.c ****      indeed, when HAL_DMA_Abort() API is called, the DMA TX/RX Transfer or Half Transfer complete  
1079:Drivers/STM32L4xx_HAL_Driver/Src/stm32l4xx_hal_uart.c ****      interrupt is generated if the DMA transfer interruption occurs at the middle or at the end of 
1080:Drivers/STM32L4xx_HAL_Driver/Src/stm32l4xx_hal_uart.c ****      the stream and the corresponding call back is executed. */
1081:Drivers/STM32L4xx_HAL_Driver/Src/stm32l4xx_hal_uart.c **** 
1082:Drivers/STM32L4xx_HAL_Driver/Src/stm32l4xx_hal_uart.c ****   /* Stop UART DMA Tx request if ongoing */
1083:Drivers/STM32L4xx_HAL_Driver/Src/stm32l4xx_hal_uart.c ****   if ((huart->gState == HAL_UART_STATE_BUSY_TX) &&
 2102              		.loc 1 1083 0
 2103 0008 7B68     		ldr	r3, [r7, #4]
 2104 000a 93F86930 		ldrb	r3, [r3, #105]
 2105 000e DBB2     		uxtb	r3, r3
 2106 0010 212B     		cmp	r3, #33
 2107 0012 1AD1     		bne	.L109
1084:Drivers/STM32L4xx_HAL_Driver/Src/stm32l4xx_hal_uart.c ****       (HAL_IS_BIT_SET(huart->Instance->CR3, USART_CR3_DMAT)))
 2108              		.loc 1 1084 0 discriminator 1
 2109 0014 7B68     		ldr	r3, [r7, #4]
 2110 0016 1B68     		ldr	r3, [r3]
 2111 0018 9B68     		ldr	r3, [r3, #8]
 2112 001a 03F08003 		and	r3, r3, #128
1083:Drivers/STM32L4xx_HAL_Driver/Src/stm32l4xx_hal_uart.c ****       (HAL_IS_BIT_SET(huart->Instance->CR3, USART_CR3_DMAT)))
 2113              		.loc 1 1083 0 discriminator 1
 2114 001e 802B     		cmp	r3, #128
 2115 0020 13D1     		bne	.L109
1085:Drivers/STM32L4xx_HAL_Driver/Src/stm32l4xx_hal_uart.c ****   {
1086:Drivers/STM32L4xx_HAL_Driver/Src/stm32l4xx_hal_uart.c ****     CLEAR_BIT(huart->Instance->CR3, USART_CR3_DMAT);
 2116              		.loc 1 1086 0
 2117 0022 7B68     		ldr	r3, [r7, #4]
 2118 0024 1B68     		ldr	r3, [r3]
 2119 0026 7A68     		ldr	r2, [r7, #4]
 2120 0028 1268     		ldr	r2, [r2]
 2121 002a 9268     		ldr	r2, [r2, #8]
 2122 002c 22F08002 		bic	r2, r2, #128
 2123 0030 9A60     		str	r2, [r3, #8]
1087:Drivers/STM32L4xx_HAL_Driver/Src/stm32l4xx_hal_uart.c **** 
1088:Drivers/STM32L4xx_HAL_Driver/Src/stm32l4xx_hal_uart.c ****     /* Abort the UART DMA Tx channel */
1089:Drivers/STM32L4xx_HAL_Driver/Src/stm32l4xx_hal_uart.c ****     if(huart->hdmatx != NULL)
 2124              		.loc 1 1089 0
 2125 0032 7B68     		ldr	r3, [r7, #4]
 2126 0034 1B6E     		ldr	r3, [r3, #96]
 2127 0036 002B     		cmp	r3, #0
 2128 0038 04D0     		beq	.L110
1090:Drivers/STM32L4xx_HAL_Driver/Src/stm32l4xx_hal_uart.c ****     {
ARM GAS  /tmp/ccMdFX4h.s 			page 57


1091:Drivers/STM32L4xx_HAL_Driver/Src/stm32l4xx_hal_uart.c ****       HAL_DMA_Abort(huart->hdmatx);
 2129              		.loc 1 1091 0
 2130 003a 7B68     		ldr	r3, [r7, #4]
 2131 003c 1B6E     		ldr	r3, [r3, #96]
 2132 003e 1846     		mov	r0, r3
 2133 0040 FFF7FEFF 		bl	HAL_DMA_Abort
 2134              	.L110:
1092:Drivers/STM32L4xx_HAL_Driver/Src/stm32l4xx_hal_uart.c ****     }
1093:Drivers/STM32L4xx_HAL_Driver/Src/stm32l4xx_hal_uart.c **** 
1094:Drivers/STM32L4xx_HAL_Driver/Src/stm32l4xx_hal_uart.c ****     UART_EndTxTransfer(huart);
 2135              		.loc 1 1094 0
 2136 0044 7868     		ldr	r0, [r7, #4]
 2137 0046 FFF7FEFF 		bl	UART_EndTxTransfer
 2138              	.L109:
1095:Drivers/STM32L4xx_HAL_Driver/Src/stm32l4xx_hal_uart.c ****   }
1096:Drivers/STM32L4xx_HAL_Driver/Src/stm32l4xx_hal_uart.c **** 
1097:Drivers/STM32L4xx_HAL_Driver/Src/stm32l4xx_hal_uart.c ****   /* Stop UART DMA Rx request if ongoing */
1098:Drivers/STM32L4xx_HAL_Driver/Src/stm32l4xx_hal_uart.c ****   if ((huart->RxState == HAL_UART_STATE_BUSY_RX) &&
 2139              		.loc 1 1098 0
 2140 004a 7B68     		ldr	r3, [r7, #4]
 2141 004c 93F86A30 		ldrb	r3, [r3, #106]
 2142 0050 DBB2     		uxtb	r3, r3
 2143 0052 222B     		cmp	r3, #34
 2144 0054 1AD1     		bne	.L111
1099:Drivers/STM32L4xx_HAL_Driver/Src/stm32l4xx_hal_uart.c ****       (HAL_IS_BIT_SET(huart->Instance->CR3, USART_CR3_DMAR)))
 2145              		.loc 1 1099 0 discriminator 1
 2146 0056 7B68     		ldr	r3, [r7, #4]
 2147 0058 1B68     		ldr	r3, [r3]
 2148 005a 9B68     		ldr	r3, [r3, #8]
 2149 005c 03F04003 		and	r3, r3, #64
1098:Drivers/STM32L4xx_HAL_Driver/Src/stm32l4xx_hal_uart.c ****       (HAL_IS_BIT_SET(huart->Instance->CR3, USART_CR3_DMAR)))
 2150              		.loc 1 1098 0 discriminator 1
 2151 0060 402B     		cmp	r3, #64
 2152 0062 13D1     		bne	.L111
1100:Drivers/STM32L4xx_HAL_Driver/Src/stm32l4xx_hal_uart.c ****   {
1101:Drivers/STM32L4xx_HAL_Driver/Src/stm32l4xx_hal_uart.c ****     CLEAR_BIT(huart->Instance->CR3, USART_CR3_DMAR);
 2153              		.loc 1 1101 0
 2154 0064 7B68     		ldr	r3, [r7, #4]
 2155 0066 1B68     		ldr	r3, [r3]
 2156 0068 7A68     		ldr	r2, [r7, #4]
 2157 006a 1268     		ldr	r2, [r2]
 2158 006c 9268     		ldr	r2, [r2, #8]
 2159 006e 22F04002 		bic	r2, r2, #64
 2160 0072 9A60     		str	r2, [r3, #8]
1102:Drivers/STM32L4xx_HAL_Driver/Src/stm32l4xx_hal_uart.c **** 
1103:Drivers/STM32L4xx_HAL_Driver/Src/stm32l4xx_hal_uart.c ****     /* Abort the UART DMA Rx channel */
1104:Drivers/STM32L4xx_HAL_Driver/Src/stm32l4xx_hal_uart.c ****     if(huart->hdmarx != NULL)
 2161              		.loc 1 1104 0
 2162 0074 7B68     		ldr	r3, [r7, #4]
 2163 0076 5B6E     		ldr	r3, [r3, #100]
 2164 0078 002B     		cmp	r3, #0
 2165 007a 04D0     		beq	.L112
1105:Drivers/STM32L4xx_HAL_Driver/Src/stm32l4xx_hal_uart.c ****     {
1106:Drivers/STM32L4xx_HAL_Driver/Src/stm32l4xx_hal_uart.c ****       HAL_DMA_Abort(huart->hdmarx);
 2166              		.loc 1 1106 0
 2167 007c 7B68     		ldr	r3, [r7, #4]
 2168 007e 5B6E     		ldr	r3, [r3, #100]
ARM GAS  /tmp/ccMdFX4h.s 			page 58


 2169 0080 1846     		mov	r0, r3
 2170 0082 FFF7FEFF 		bl	HAL_DMA_Abort
 2171              	.L112:
1107:Drivers/STM32L4xx_HAL_Driver/Src/stm32l4xx_hal_uart.c ****     }
1108:Drivers/STM32L4xx_HAL_Driver/Src/stm32l4xx_hal_uart.c **** 
1109:Drivers/STM32L4xx_HAL_Driver/Src/stm32l4xx_hal_uart.c ****     UART_EndRxTransfer(huart);
 2172              		.loc 1 1109 0
 2173 0086 7868     		ldr	r0, [r7, #4]
 2174 0088 FFF7FEFF 		bl	UART_EndRxTransfer
 2175              	.L111:
1110:Drivers/STM32L4xx_HAL_Driver/Src/stm32l4xx_hal_uart.c ****   }
1111:Drivers/STM32L4xx_HAL_Driver/Src/stm32l4xx_hal_uart.c **** 
1112:Drivers/STM32L4xx_HAL_Driver/Src/stm32l4xx_hal_uart.c ****   return HAL_OK;
 2176              		.loc 1 1112 0
 2177 008c 0023     		movs	r3, #0
1113:Drivers/STM32L4xx_HAL_Driver/Src/stm32l4xx_hal_uart.c **** }
 2178              		.loc 1 1113 0
 2179 008e 1846     		mov	r0, r3
 2180 0090 0837     		adds	r7, r7, #8
 2181              	.LCFI84:
 2182              		.cfi_def_cfa_offset 8
 2183 0092 BD46     		mov	sp, r7
 2184              	.LCFI85:
 2185              		.cfi_def_cfa_register 13
 2186              		@ sp needed
 2187 0094 80BD     		pop	{r7, pc}
 2188              		.cfi_endproc
 2189              	.LFE141:
 2191              		.section	.text.HAL_UART_Abort,"ax",%progbits
 2192              		.align	1
 2193              		.global	HAL_UART_Abort
 2194              		.syntax unified
 2195              		.thumb
 2196              		.thumb_func
 2197              		.fpu fpv4-sp-d16
 2199              	HAL_UART_Abort:
 2200              	.LFB142:
1114:Drivers/STM32L4xx_HAL_Driver/Src/stm32l4xx_hal_uart.c **** 
1115:Drivers/STM32L4xx_HAL_Driver/Src/stm32l4xx_hal_uart.c **** /**
1116:Drivers/STM32L4xx_HAL_Driver/Src/stm32l4xx_hal_uart.c ****   * @brief  Abort ongoing transfers (blocking mode).
1117:Drivers/STM32L4xx_HAL_Driver/Src/stm32l4xx_hal_uart.c ****   * @param  huart UART handle.
1118:Drivers/STM32L4xx_HAL_Driver/Src/stm32l4xx_hal_uart.c ****   * @note   This procedure could be used for aborting any ongoing transfer started in Interrupt or 
1119:Drivers/STM32L4xx_HAL_Driver/Src/stm32l4xx_hal_uart.c ****   *         This procedure performs following operations :
1120:Drivers/STM32L4xx_HAL_Driver/Src/stm32l4xx_hal_uart.c ****   *           - Disable UART Interrupts (Tx and Rx)
1121:Drivers/STM32L4xx_HAL_Driver/Src/stm32l4xx_hal_uart.c ****   *           - Disable the DMA transfer in the peripheral register (if enabled)
1122:Drivers/STM32L4xx_HAL_Driver/Src/stm32l4xx_hal_uart.c ****   *           - Abort DMA transfer by calling HAL_DMA_Abort (in case of transfer in DMA mode)
1123:Drivers/STM32L4xx_HAL_Driver/Src/stm32l4xx_hal_uart.c ****   *           - Set handle State to READY
1124:Drivers/STM32L4xx_HAL_Driver/Src/stm32l4xx_hal_uart.c ****   * @note   This procedure is executed in blocking mode : when exiting function, Abort is considere
1125:Drivers/STM32L4xx_HAL_Driver/Src/stm32l4xx_hal_uart.c ****   * @retval HAL status
1126:Drivers/STM32L4xx_HAL_Driver/Src/stm32l4xx_hal_uart.c **** */
1127:Drivers/STM32L4xx_HAL_Driver/Src/stm32l4xx_hal_uart.c **** HAL_StatusTypeDef HAL_UART_Abort(UART_HandleTypeDef *huart)
1128:Drivers/STM32L4xx_HAL_Driver/Src/stm32l4xx_hal_uart.c **** {
 2201              		.loc 1 1128 0
 2202              		.cfi_startproc
 2203              		@ args = 0, pretend = 0, frame = 8
 2204              		@ frame_needed = 1, uses_anonymous_args = 0
 2205 0000 80B5     		push	{r7, lr}
ARM GAS  /tmp/ccMdFX4h.s 			page 59


 2206              	.LCFI86:
 2207              		.cfi_def_cfa_offset 8
 2208              		.cfi_offset 7, -8
 2209              		.cfi_offset 14, -4
 2210 0002 82B0     		sub	sp, sp, #8
 2211              	.LCFI87:
 2212              		.cfi_def_cfa_offset 16
 2213 0004 00AF     		add	r7, sp, #0
 2214              	.LCFI88:
 2215              		.cfi_def_cfa_register 7
 2216 0006 7860     		str	r0, [r7, #4]
1129:Drivers/STM32L4xx_HAL_Driver/Src/stm32l4xx_hal_uart.c ****   /* Disable TXEIE, TCIE, RXNE, PE and ERR (Frame error, noise error, overrun error) interrupts */
1130:Drivers/STM32L4xx_HAL_Driver/Src/stm32l4xx_hal_uart.c ****   CLEAR_BIT(huart->Instance->CR1, (USART_CR1_RXNEIE | USART_CR1_PEIE | USART_CR1_TXEIE | USART_CR1_
 2217              		.loc 1 1130 0
 2218 0008 7B68     		ldr	r3, [r7, #4]
 2219 000a 1B68     		ldr	r3, [r3]
 2220 000c 7A68     		ldr	r2, [r7, #4]
 2221 000e 1268     		ldr	r2, [r2]
 2222 0010 1268     		ldr	r2, [r2]
 2223 0012 22F4F072 		bic	r2, r2, #480
 2224 0016 1A60     		str	r2, [r3]
1131:Drivers/STM32L4xx_HAL_Driver/Src/stm32l4xx_hal_uart.c ****   CLEAR_BIT(huart->Instance->CR3, USART_CR3_EIE);
 2225              		.loc 1 1131 0
 2226 0018 7B68     		ldr	r3, [r7, #4]
 2227 001a 1B68     		ldr	r3, [r3]
 2228 001c 7A68     		ldr	r2, [r7, #4]
 2229 001e 1268     		ldr	r2, [r2]
 2230 0020 9268     		ldr	r2, [r2, #8]
 2231 0022 22F00102 		bic	r2, r2, #1
 2232 0026 9A60     		str	r2, [r3, #8]
1132:Drivers/STM32L4xx_HAL_Driver/Src/stm32l4xx_hal_uart.c **** 
1133:Drivers/STM32L4xx_HAL_Driver/Src/stm32l4xx_hal_uart.c ****   /* Disable the UART DMA Tx request if enabled */
1134:Drivers/STM32L4xx_HAL_Driver/Src/stm32l4xx_hal_uart.c ****   if (HAL_IS_BIT_SET(huart->Instance->CR3, USART_CR3_DMAT))
 2233              		.loc 1 1134 0
 2234 0028 7B68     		ldr	r3, [r7, #4]
 2235 002a 1B68     		ldr	r3, [r3]
 2236 002c 9B68     		ldr	r3, [r3, #8]
 2237 002e 03F08003 		and	r3, r3, #128
 2238 0032 802B     		cmp	r3, #128
 2239 0034 14D1     		bne	.L115
1135:Drivers/STM32L4xx_HAL_Driver/Src/stm32l4xx_hal_uart.c ****   {
1136:Drivers/STM32L4xx_HAL_Driver/Src/stm32l4xx_hal_uart.c ****     CLEAR_BIT(huart->Instance->CR3, USART_CR3_DMAT);
 2240              		.loc 1 1136 0
 2241 0036 7B68     		ldr	r3, [r7, #4]
 2242 0038 1B68     		ldr	r3, [r3]
 2243 003a 7A68     		ldr	r2, [r7, #4]
 2244 003c 1268     		ldr	r2, [r2]
 2245 003e 9268     		ldr	r2, [r2, #8]
 2246 0040 22F08002 		bic	r2, r2, #128
 2247 0044 9A60     		str	r2, [r3, #8]
1137:Drivers/STM32L4xx_HAL_Driver/Src/stm32l4xx_hal_uart.c **** 
1138:Drivers/STM32L4xx_HAL_Driver/Src/stm32l4xx_hal_uart.c ****     /* Abort the UART DMA Tx channel : use blocking DMA Abort API (no callback) */
1139:Drivers/STM32L4xx_HAL_Driver/Src/stm32l4xx_hal_uart.c ****     if(huart->hdmatx != NULL)
 2248              		.loc 1 1139 0
 2249 0046 7B68     		ldr	r3, [r7, #4]
 2250 0048 1B6E     		ldr	r3, [r3, #96]
 2251 004a 002B     		cmp	r3, #0
ARM GAS  /tmp/ccMdFX4h.s 			page 60


 2252 004c 08D0     		beq	.L115
1140:Drivers/STM32L4xx_HAL_Driver/Src/stm32l4xx_hal_uart.c ****     {
1141:Drivers/STM32L4xx_HAL_Driver/Src/stm32l4xx_hal_uart.c ****       /* Set the UART DMA Abort callback to Null. 
1142:Drivers/STM32L4xx_HAL_Driver/Src/stm32l4xx_hal_uart.c ****          No call back execution at end of DMA abort procedure */
1143:Drivers/STM32L4xx_HAL_Driver/Src/stm32l4xx_hal_uart.c ****       huart->hdmatx->XferAbortCallback = NULL;
 2253              		.loc 1 1143 0
 2254 004e 7B68     		ldr	r3, [r7, #4]
 2255 0050 1B6E     		ldr	r3, [r3, #96]
 2256 0052 0022     		movs	r2, #0
 2257 0054 9A63     		str	r2, [r3, #56]
1144:Drivers/STM32L4xx_HAL_Driver/Src/stm32l4xx_hal_uart.c **** 
1145:Drivers/STM32L4xx_HAL_Driver/Src/stm32l4xx_hal_uart.c ****       HAL_DMA_Abort(huart->hdmatx);
 2258              		.loc 1 1145 0
 2259 0056 7B68     		ldr	r3, [r7, #4]
 2260 0058 1B6E     		ldr	r3, [r3, #96]
 2261 005a 1846     		mov	r0, r3
 2262 005c FFF7FEFF 		bl	HAL_DMA_Abort
 2263              	.L115:
1146:Drivers/STM32L4xx_HAL_Driver/Src/stm32l4xx_hal_uart.c ****     }
1147:Drivers/STM32L4xx_HAL_Driver/Src/stm32l4xx_hal_uart.c ****   }
1148:Drivers/STM32L4xx_HAL_Driver/Src/stm32l4xx_hal_uart.c **** 
1149:Drivers/STM32L4xx_HAL_Driver/Src/stm32l4xx_hal_uart.c ****   /* Disable the UART DMA Rx request if enabled */
1150:Drivers/STM32L4xx_HAL_Driver/Src/stm32l4xx_hal_uart.c ****   if (HAL_IS_BIT_SET(huart->Instance->CR3, USART_CR3_DMAR))
 2264              		.loc 1 1150 0
 2265 0060 7B68     		ldr	r3, [r7, #4]
 2266 0062 1B68     		ldr	r3, [r3]
 2267 0064 9B68     		ldr	r3, [r3, #8]
 2268 0066 03F04003 		and	r3, r3, #64
 2269 006a 402B     		cmp	r3, #64
 2270 006c 14D1     		bne	.L116
1151:Drivers/STM32L4xx_HAL_Driver/Src/stm32l4xx_hal_uart.c ****   {
1152:Drivers/STM32L4xx_HAL_Driver/Src/stm32l4xx_hal_uart.c ****     CLEAR_BIT(huart->Instance->CR3, USART_CR3_DMAR);
 2271              		.loc 1 1152 0
 2272 006e 7B68     		ldr	r3, [r7, #4]
 2273 0070 1B68     		ldr	r3, [r3]
 2274 0072 7A68     		ldr	r2, [r7, #4]
 2275 0074 1268     		ldr	r2, [r2]
 2276 0076 9268     		ldr	r2, [r2, #8]
 2277 0078 22F04002 		bic	r2, r2, #64
 2278 007c 9A60     		str	r2, [r3, #8]
1153:Drivers/STM32L4xx_HAL_Driver/Src/stm32l4xx_hal_uart.c **** 
1154:Drivers/STM32L4xx_HAL_Driver/Src/stm32l4xx_hal_uart.c ****     /* Abort the UART DMA Rx channel : use blocking DMA Abort API (no callback) */
1155:Drivers/STM32L4xx_HAL_Driver/Src/stm32l4xx_hal_uart.c ****     if(huart->hdmarx != NULL)
 2279              		.loc 1 1155 0
 2280 007e 7B68     		ldr	r3, [r7, #4]
 2281 0080 5B6E     		ldr	r3, [r3, #100]
 2282 0082 002B     		cmp	r3, #0
 2283 0084 08D0     		beq	.L116
1156:Drivers/STM32L4xx_HAL_Driver/Src/stm32l4xx_hal_uart.c ****     {
1157:Drivers/STM32L4xx_HAL_Driver/Src/stm32l4xx_hal_uart.c ****       /* Set the UART DMA Abort callback to Null. 
1158:Drivers/STM32L4xx_HAL_Driver/Src/stm32l4xx_hal_uart.c ****          No call back execution at end of DMA abort procedure */
1159:Drivers/STM32L4xx_HAL_Driver/Src/stm32l4xx_hal_uart.c ****       huart->hdmarx->XferAbortCallback = NULL;
 2284              		.loc 1 1159 0
 2285 0086 7B68     		ldr	r3, [r7, #4]
 2286 0088 5B6E     		ldr	r3, [r3, #100]
 2287 008a 0022     		movs	r2, #0
 2288 008c 9A63     		str	r2, [r3, #56]
ARM GAS  /tmp/ccMdFX4h.s 			page 61


1160:Drivers/STM32L4xx_HAL_Driver/Src/stm32l4xx_hal_uart.c **** 
1161:Drivers/STM32L4xx_HAL_Driver/Src/stm32l4xx_hal_uart.c ****       HAL_DMA_Abort(huart->hdmarx);
 2289              		.loc 1 1161 0
 2290 008e 7B68     		ldr	r3, [r7, #4]
 2291 0090 5B6E     		ldr	r3, [r3, #100]
 2292 0092 1846     		mov	r0, r3
 2293 0094 FFF7FEFF 		bl	HAL_DMA_Abort
 2294              	.L116:
1162:Drivers/STM32L4xx_HAL_Driver/Src/stm32l4xx_hal_uart.c ****     }
1163:Drivers/STM32L4xx_HAL_Driver/Src/stm32l4xx_hal_uart.c ****   }
1164:Drivers/STM32L4xx_HAL_Driver/Src/stm32l4xx_hal_uart.c **** 
1165:Drivers/STM32L4xx_HAL_Driver/Src/stm32l4xx_hal_uart.c ****   /* Reset Tx and Rx transfer counters */
1166:Drivers/STM32L4xx_HAL_Driver/Src/stm32l4xx_hal_uart.c ****   huart->TxXferCount = 0; 
 2295              		.loc 1 1166 0
 2296 0098 7B68     		ldr	r3, [r7, #4]
 2297 009a 0022     		movs	r2, #0
 2298 009c A3F85220 		strh	r2, [r3, #82]	@ movhi
1167:Drivers/STM32L4xx_HAL_Driver/Src/stm32l4xx_hal_uart.c ****   huart->RxXferCount = 0; 
 2299              		.loc 1 1167 0
 2300 00a0 7B68     		ldr	r3, [r7, #4]
 2301 00a2 0022     		movs	r2, #0
 2302 00a4 A3F85A20 		strh	r2, [r3, #90]	@ movhi
1168:Drivers/STM32L4xx_HAL_Driver/Src/stm32l4xx_hal_uart.c **** 
1169:Drivers/STM32L4xx_HAL_Driver/Src/stm32l4xx_hal_uart.c ****   /* Clear the Error flags in the ICR register */
1170:Drivers/STM32L4xx_HAL_Driver/Src/stm32l4xx_hal_uart.c ****   __HAL_UART_CLEAR_FLAG(huart, UART_CLEAR_OREF | UART_CLEAR_NEF | UART_CLEAR_PEF | UART_CLEAR_FEF);
 2303              		.loc 1 1170 0
 2304 00a8 7B68     		ldr	r3, [r7, #4]
 2305 00aa 1B68     		ldr	r3, [r3]
 2306 00ac 0F22     		movs	r2, #15
 2307 00ae 1A62     		str	r2, [r3, #32]
1171:Drivers/STM32L4xx_HAL_Driver/Src/stm32l4xx_hal_uart.c **** 
1172:Drivers/STM32L4xx_HAL_Driver/Src/stm32l4xx_hal_uart.c ****   /* Restore huart->gState and huart->RxState to Ready */
1173:Drivers/STM32L4xx_HAL_Driver/Src/stm32l4xx_hal_uart.c ****   huart->gState  = HAL_UART_STATE_READY;
 2308              		.loc 1 1173 0
 2309 00b0 7B68     		ldr	r3, [r7, #4]
 2310 00b2 2022     		movs	r2, #32
 2311 00b4 83F86920 		strb	r2, [r3, #105]
1174:Drivers/STM32L4xx_HAL_Driver/Src/stm32l4xx_hal_uart.c ****   huart->RxState = HAL_UART_STATE_READY;
 2312              		.loc 1 1174 0
 2313 00b8 7B68     		ldr	r3, [r7, #4]
 2314 00ba 2022     		movs	r2, #32
 2315 00bc 83F86A20 		strb	r2, [r3, #106]
1175:Drivers/STM32L4xx_HAL_Driver/Src/stm32l4xx_hal_uart.c **** 
1176:Drivers/STM32L4xx_HAL_Driver/Src/stm32l4xx_hal_uart.c ****   /* Reset Handle ErrorCode to No Error */
1177:Drivers/STM32L4xx_HAL_Driver/Src/stm32l4xx_hal_uart.c ****   huart->ErrorCode = HAL_UART_ERROR_NONE;
 2316              		.loc 1 1177 0
 2317 00c0 7B68     		ldr	r3, [r7, #4]
 2318 00c2 0022     		movs	r2, #0
 2319 00c4 DA66     		str	r2, [r3, #108]
1178:Drivers/STM32L4xx_HAL_Driver/Src/stm32l4xx_hal_uart.c **** 
1179:Drivers/STM32L4xx_HAL_Driver/Src/stm32l4xx_hal_uart.c ****   return HAL_OK;
 2320              		.loc 1 1179 0
 2321 00c6 0023     		movs	r3, #0
1180:Drivers/STM32L4xx_HAL_Driver/Src/stm32l4xx_hal_uart.c **** }
 2322              		.loc 1 1180 0
 2323 00c8 1846     		mov	r0, r3
 2324 00ca 0837     		adds	r7, r7, #8
ARM GAS  /tmp/ccMdFX4h.s 			page 62


 2325              	.LCFI89:
 2326              		.cfi_def_cfa_offset 8
 2327 00cc BD46     		mov	sp, r7
 2328              	.LCFI90:
 2329              		.cfi_def_cfa_register 13
 2330              		@ sp needed
 2331 00ce 80BD     		pop	{r7, pc}
 2332              		.cfi_endproc
 2333              	.LFE142:
 2335              		.section	.text.HAL_UART_AbortTransmit,"ax",%progbits
 2336              		.align	1
 2337              		.global	HAL_UART_AbortTransmit
 2338              		.syntax unified
 2339              		.thumb
 2340              		.thumb_func
 2341              		.fpu fpv4-sp-d16
 2343              	HAL_UART_AbortTransmit:
 2344              	.LFB143:
1181:Drivers/STM32L4xx_HAL_Driver/Src/stm32l4xx_hal_uart.c **** 
1182:Drivers/STM32L4xx_HAL_Driver/Src/stm32l4xx_hal_uart.c **** /**
1183:Drivers/STM32L4xx_HAL_Driver/Src/stm32l4xx_hal_uart.c ****   * @brief  Abort ongoing Transmit transfer (blocking mode).
1184:Drivers/STM32L4xx_HAL_Driver/Src/stm32l4xx_hal_uart.c ****   * @param  huart UART handle.
1185:Drivers/STM32L4xx_HAL_Driver/Src/stm32l4xx_hal_uart.c ****   * @note   This procedure could be used for aborting any ongoing Tx transfer started in Interrupt 
1186:Drivers/STM32L4xx_HAL_Driver/Src/stm32l4xx_hal_uart.c ****   *         This procedure performs following operations :
1187:Drivers/STM32L4xx_HAL_Driver/Src/stm32l4xx_hal_uart.c ****   *           - Disable UART Interrupts (Tx)
1188:Drivers/STM32L4xx_HAL_Driver/Src/stm32l4xx_hal_uart.c ****   *           - Disable the DMA transfer in the peripheral register (if enabled)
1189:Drivers/STM32L4xx_HAL_Driver/Src/stm32l4xx_hal_uart.c ****   *           - Abort DMA transfer by calling HAL_DMA_Abort (in case of transfer in DMA mode)
1190:Drivers/STM32L4xx_HAL_Driver/Src/stm32l4xx_hal_uart.c ****   *           - Set handle State to READY
1191:Drivers/STM32L4xx_HAL_Driver/Src/stm32l4xx_hal_uart.c ****   * @note   This procedure is executed in blocking mode : when exiting function, Abort is considere
1192:Drivers/STM32L4xx_HAL_Driver/Src/stm32l4xx_hal_uart.c ****   * @retval HAL status
1193:Drivers/STM32L4xx_HAL_Driver/Src/stm32l4xx_hal_uart.c **** */
1194:Drivers/STM32L4xx_HAL_Driver/Src/stm32l4xx_hal_uart.c **** HAL_StatusTypeDef HAL_UART_AbortTransmit(UART_HandleTypeDef *huart)
1195:Drivers/STM32L4xx_HAL_Driver/Src/stm32l4xx_hal_uart.c **** {
 2345              		.loc 1 1195 0
 2346              		.cfi_startproc
 2347              		@ args = 0, pretend = 0, frame = 8
 2348              		@ frame_needed = 1, uses_anonymous_args = 0
 2349 0000 80B5     		push	{r7, lr}
 2350              	.LCFI91:
 2351              		.cfi_def_cfa_offset 8
 2352              		.cfi_offset 7, -8
 2353              		.cfi_offset 14, -4
 2354 0002 82B0     		sub	sp, sp, #8
 2355              	.LCFI92:
 2356              		.cfi_def_cfa_offset 16
 2357 0004 00AF     		add	r7, sp, #0
 2358              	.LCFI93:
 2359              		.cfi_def_cfa_register 7
 2360 0006 7860     		str	r0, [r7, #4]
1196:Drivers/STM32L4xx_HAL_Driver/Src/stm32l4xx_hal_uart.c ****   /* Disable TXEIE and TCIE interrupts */
1197:Drivers/STM32L4xx_HAL_Driver/Src/stm32l4xx_hal_uart.c ****   CLEAR_BIT(huart->Instance->CR1, (USART_CR1_TXEIE | USART_CR1_TCIE));
 2361              		.loc 1 1197 0
 2362 0008 7B68     		ldr	r3, [r7, #4]
 2363 000a 1B68     		ldr	r3, [r3]
 2364 000c 7A68     		ldr	r2, [r7, #4]
 2365 000e 1268     		ldr	r2, [r2]
 2366 0010 1268     		ldr	r2, [r2]
ARM GAS  /tmp/ccMdFX4h.s 			page 63


 2367 0012 22F0C002 		bic	r2, r2, #192
 2368 0016 1A60     		str	r2, [r3]
1198:Drivers/STM32L4xx_HAL_Driver/Src/stm32l4xx_hal_uart.c **** 
1199:Drivers/STM32L4xx_HAL_Driver/Src/stm32l4xx_hal_uart.c ****   /* Disable the UART DMA Tx request if enabled */
1200:Drivers/STM32L4xx_HAL_Driver/Src/stm32l4xx_hal_uart.c ****   if (HAL_IS_BIT_SET(huart->Instance->CR3, USART_CR3_DMAT))
 2369              		.loc 1 1200 0
 2370 0018 7B68     		ldr	r3, [r7, #4]
 2371 001a 1B68     		ldr	r3, [r3]
 2372 001c 9B68     		ldr	r3, [r3, #8]
 2373 001e 03F08003 		and	r3, r3, #128
 2374 0022 802B     		cmp	r3, #128
 2375 0024 14D1     		bne	.L119
1201:Drivers/STM32L4xx_HAL_Driver/Src/stm32l4xx_hal_uart.c ****   {
1202:Drivers/STM32L4xx_HAL_Driver/Src/stm32l4xx_hal_uart.c ****     CLEAR_BIT(huart->Instance->CR3, USART_CR3_DMAT);
 2376              		.loc 1 1202 0
 2377 0026 7B68     		ldr	r3, [r7, #4]
 2378 0028 1B68     		ldr	r3, [r3]
 2379 002a 7A68     		ldr	r2, [r7, #4]
 2380 002c 1268     		ldr	r2, [r2]
 2381 002e 9268     		ldr	r2, [r2, #8]
 2382 0030 22F08002 		bic	r2, r2, #128
 2383 0034 9A60     		str	r2, [r3, #8]
1203:Drivers/STM32L4xx_HAL_Driver/Src/stm32l4xx_hal_uart.c **** 
1204:Drivers/STM32L4xx_HAL_Driver/Src/stm32l4xx_hal_uart.c ****     /* Abort the UART DMA Tx channel : use blocking DMA Abort API (no callback) */
1205:Drivers/STM32L4xx_HAL_Driver/Src/stm32l4xx_hal_uart.c ****     if(huart->hdmatx != NULL)
 2384              		.loc 1 1205 0
 2385 0036 7B68     		ldr	r3, [r7, #4]
 2386 0038 1B6E     		ldr	r3, [r3, #96]
 2387 003a 002B     		cmp	r3, #0
 2388 003c 08D0     		beq	.L119
1206:Drivers/STM32L4xx_HAL_Driver/Src/stm32l4xx_hal_uart.c ****     {
1207:Drivers/STM32L4xx_HAL_Driver/Src/stm32l4xx_hal_uart.c ****       /* Set the UART DMA Abort callback to Null. 
1208:Drivers/STM32L4xx_HAL_Driver/Src/stm32l4xx_hal_uart.c ****          No call back execution at end of DMA abort procedure */
1209:Drivers/STM32L4xx_HAL_Driver/Src/stm32l4xx_hal_uart.c ****       huart->hdmatx->XferAbortCallback = NULL;
 2389              		.loc 1 1209 0
 2390 003e 7B68     		ldr	r3, [r7, #4]
 2391 0040 1B6E     		ldr	r3, [r3, #96]
 2392 0042 0022     		movs	r2, #0
 2393 0044 9A63     		str	r2, [r3, #56]
1210:Drivers/STM32L4xx_HAL_Driver/Src/stm32l4xx_hal_uart.c **** 
1211:Drivers/STM32L4xx_HAL_Driver/Src/stm32l4xx_hal_uart.c ****       HAL_DMA_Abort(huart->hdmatx);
 2394              		.loc 1 1211 0
 2395 0046 7B68     		ldr	r3, [r7, #4]
 2396 0048 1B6E     		ldr	r3, [r3, #96]
 2397 004a 1846     		mov	r0, r3
 2398 004c FFF7FEFF 		bl	HAL_DMA_Abort
 2399              	.L119:
1212:Drivers/STM32L4xx_HAL_Driver/Src/stm32l4xx_hal_uart.c ****     }
1213:Drivers/STM32L4xx_HAL_Driver/Src/stm32l4xx_hal_uart.c ****   }
1214:Drivers/STM32L4xx_HAL_Driver/Src/stm32l4xx_hal_uart.c **** 
1215:Drivers/STM32L4xx_HAL_Driver/Src/stm32l4xx_hal_uart.c ****   /* Reset Tx transfer counter */
1216:Drivers/STM32L4xx_HAL_Driver/Src/stm32l4xx_hal_uart.c ****   huart->TxXferCount = 0; 
 2400              		.loc 1 1216 0
 2401 0050 7B68     		ldr	r3, [r7, #4]
 2402 0052 0022     		movs	r2, #0
 2403 0054 A3F85220 		strh	r2, [r3, #82]	@ movhi
1217:Drivers/STM32L4xx_HAL_Driver/Src/stm32l4xx_hal_uart.c **** 
ARM GAS  /tmp/ccMdFX4h.s 			page 64


1218:Drivers/STM32L4xx_HAL_Driver/Src/stm32l4xx_hal_uart.c ****   /* Restore huart->gState to Ready */
1219:Drivers/STM32L4xx_HAL_Driver/Src/stm32l4xx_hal_uart.c ****   huart->gState = HAL_UART_STATE_READY;
 2404              		.loc 1 1219 0
 2405 0058 7B68     		ldr	r3, [r7, #4]
 2406 005a 2022     		movs	r2, #32
 2407 005c 83F86920 		strb	r2, [r3, #105]
1220:Drivers/STM32L4xx_HAL_Driver/Src/stm32l4xx_hal_uart.c **** 
1221:Drivers/STM32L4xx_HAL_Driver/Src/stm32l4xx_hal_uart.c ****   return HAL_OK;
 2408              		.loc 1 1221 0
 2409 0060 0023     		movs	r3, #0
1222:Drivers/STM32L4xx_HAL_Driver/Src/stm32l4xx_hal_uart.c **** }
 2410              		.loc 1 1222 0
 2411 0062 1846     		mov	r0, r3
 2412 0064 0837     		adds	r7, r7, #8
 2413              	.LCFI94:
 2414              		.cfi_def_cfa_offset 8
 2415 0066 BD46     		mov	sp, r7
 2416              	.LCFI95:
 2417              		.cfi_def_cfa_register 13
 2418              		@ sp needed
 2419 0068 80BD     		pop	{r7, pc}
 2420              		.cfi_endproc
 2421              	.LFE143:
 2423              		.section	.text.HAL_UART_AbortReceive,"ax",%progbits
 2424              		.align	1
 2425              		.global	HAL_UART_AbortReceive
 2426              		.syntax unified
 2427              		.thumb
 2428              		.thumb_func
 2429              		.fpu fpv4-sp-d16
 2431              	HAL_UART_AbortReceive:
 2432              	.LFB144:
1223:Drivers/STM32L4xx_HAL_Driver/Src/stm32l4xx_hal_uart.c **** 
1224:Drivers/STM32L4xx_HAL_Driver/Src/stm32l4xx_hal_uart.c **** /**
1225:Drivers/STM32L4xx_HAL_Driver/Src/stm32l4xx_hal_uart.c ****   * @brief  Abort ongoing Receive transfer (blocking mode).
1226:Drivers/STM32L4xx_HAL_Driver/Src/stm32l4xx_hal_uart.c ****   * @param  huart UART handle.
1227:Drivers/STM32L4xx_HAL_Driver/Src/stm32l4xx_hal_uart.c ****   * @note   This procedure could be used for aborting any ongoing Rx transfer started in Interrupt 
1228:Drivers/STM32L4xx_HAL_Driver/Src/stm32l4xx_hal_uart.c ****   *         This procedure performs following operations :
1229:Drivers/STM32L4xx_HAL_Driver/Src/stm32l4xx_hal_uart.c ****   *           - Disable UART Interrupts (Rx)
1230:Drivers/STM32L4xx_HAL_Driver/Src/stm32l4xx_hal_uart.c ****   *           - Disable the DMA transfer in the peripheral register (if enabled)
1231:Drivers/STM32L4xx_HAL_Driver/Src/stm32l4xx_hal_uart.c ****   *           - Abort DMA transfer by calling HAL_DMA_Abort (in case of transfer in DMA mode)
1232:Drivers/STM32L4xx_HAL_Driver/Src/stm32l4xx_hal_uart.c ****   *           - Set handle State to READY
1233:Drivers/STM32L4xx_HAL_Driver/Src/stm32l4xx_hal_uart.c ****   * @note   This procedure is executed in blocking mode : when exiting function, Abort is considere
1234:Drivers/STM32L4xx_HAL_Driver/Src/stm32l4xx_hal_uart.c ****   * @retval HAL status
1235:Drivers/STM32L4xx_HAL_Driver/Src/stm32l4xx_hal_uart.c **** */
1236:Drivers/STM32L4xx_HAL_Driver/Src/stm32l4xx_hal_uart.c **** HAL_StatusTypeDef HAL_UART_AbortReceive(UART_HandleTypeDef *huart)
1237:Drivers/STM32L4xx_HAL_Driver/Src/stm32l4xx_hal_uart.c **** {
 2433              		.loc 1 1237 0
 2434              		.cfi_startproc
 2435              		@ args = 0, pretend = 0, frame = 8
 2436              		@ frame_needed = 1, uses_anonymous_args = 0
 2437 0000 80B5     		push	{r7, lr}
 2438              	.LCFI96:
 2439              		.cfi_def_cfa_offset 8
 2440              		.cfi_offset 7, -8
 2441              		.cfi_offset 14, -4
 2442 0002 82B0     		sub	sp, sp, #8
ARM GAS  /tmp/ccMdFX4h.s 			page 65


 2443              	.LCFI97:
 2444              		.cfi_def_cfa_offset 16
 2445 0004 00AF     		add	r7, sp, #0
 2446              	.LCFI98:
 2447              		.cfi_def_cfa_register 7
 2448 0006 7860     		str	r0, [r7, #4]
1238:Drivers/STM32L4xx_HAL_Driver/Src/stm32l4xx_hal_uart.c ****   /* Disable RXNE, PE and ERR (Frame error, noise error, overrun error) interrupts */
1239:Drivers/STM32L4xx_HAL_Driver/Src/stm32l4xx_hal_uart.c ****   CLEAR_BIT(huart->Instance->CR1, (USART_CR1_RXNEIE | USART_CR1_PEIE));
 2449              		.loc 1 1239 0
 2450 0008 7B68     		ldr	r3, [r7, #4]
 2451 000a 1B68     		ldr	r3, [r3]
 2452 000c 7A68     		ldr	r2, [r7, #4]
 2453 000e 1268     		ldr	r2, [r2]
 2454 0010 1268     		ldr	r2, [r2]
 2455 0012 22F49072 		bic	r2, r2, #288
 2456 0016 1A60     		str	r2, [r3]
1240:Drivers/STM32L4xx_HAL_Driver/Src/stm32l4xx_hal_uart.c ****   CLEAR_BIT(huart->Instance->CR3, USART_CR3_EIE);
 2457              		.loc 1 1240 0
 2458 0018 7B68     		ldr	r3, [r7, #4]
 2459 001a 1B68     		ldr	r3, [r3]
 2460 001c 7A68     		ldr	r2, [r7, #4]
 2461 001e 1268     		ldr	r2, [r2]
 2462 0020 9268     		ldr	r2, [r2, #8]
 2463 0022 22F00102 		bic	r2, r2, #1
 2464 0026 9A60     		str	r2, [r3, #8]
1241:Drivers/STM32L4xx_HAL_Driver/Src/stm32l4xx_hal_uart.c **** 
1242:Drivers/STM32L4xx_HAL_Driver/Src/stm32l4xx_hal_uart.c ****   /* Disable the UART DMA Rx request if enabled */
1243:Drivers/STM32L4xx_HAL_Driver/Src/stm32l4xx_hal_uart.c ****   if (HAL_IS_BIT_SET(huart->Instance->CR3, USART_CR3_DMAR))
 2465              		.loc 1 1243 0
 2466 0028 7B68     		ldr	r3, [r7, #4]
 2467 002a 1B68     		ldr	r3, [r3]
 2468 002c 9B68     		ldr	r3, [r3, #8]
 2469 002e 03F04003 		and	r3, r3, #64
 2470 0032 402B     		cmp	r3, #64
 2471 0034 14D1     		bne	.L122
1244:Drivers/STM32L4xx_HAL_Driver/Src/stm32l4xx_hal_uart.c ****   {
1245:Drivers/STM32L4xx_HAL_Driver/Src/stm32l4xx_hal_uart.c ****     CLEAR_BIT(huart->Instance->CR3, USART_CR3_DMAR);
 2472              		.loc 1 1245 0
 2473 0036 7B68     		ldr	r3, [r7, #4]
 2474 0038 1B68     		ldr	r3, [r3]
 2475 003a 7A68     		ldr	r2, [r7, #4]
 2476 003c 1268     		ldr	r2, [r2]
 2477 003e 9268     		ldr	r2, [r2, #8]
 2478 0040 22F04002 		bic	r2, r2, #64
 2479 0044 9A60     		str	r2, [r3, #8]
1246:Drivers/STM32L4xx_HAL_Driver/Src/stm32l4xx_hal_uart.c **** 
1247:Drivers/STM32L4xx_HAL_Driver/Src/stm32l4xx_hal_uart.c ****     /* Abort the UART DMA Rx channel : use blocking DMA Abort API (no callback) */
1248:Drivers/STM32L4xx_HAL_Driver/Src/stm32l4xx_hal_uart.c ****     if(huart->hdmarx != NULL)
 2480              		.loc 1 1248 0
 2481 0046 7B68     		ldr	r3, [r7, #4]
 2482 0048 5B6E     		ldr	r3, [r3, #100]
 2483 004a 002B     		cmp	r3, #0
 2484 004c 08D0     		beq	.L122
1249:Drivers/STM32L4xx_HAL_Driver/Src/stm32l4xx_hal_uart.c ****     {
1250:Drivers/STM32L4xx_HAL_Driver/Src/stm32l4xx_hal_uart.c ****       /* Set the UART DMA Abort callback to Null. 
1251:Drivers/STM32L4xx_HAL_Driver/Src/stm32l4xx_hal_uart.c ****          No call back execution at end of DMA abort procedure */
1252:Drivers/STM32L4xx_HAL_Driver/Src/stm32l4xx_hal_uart.c ****       huart->hdmarx->XferAbortCallback = NULL;
ARM GAS  /tmp/ccMdFX4h.s 			page 66


 2485              		.loc 1 1252 0
 2486 004e 7B68     		ldr	r3, [r7, #4]
 2487 0050 5B6E     		ldr	r3, [r3, #100]
 2488 0052 0022     		movs	r2, #0
 2489 0054 9A63     		str	r2, [r3, #56]
1253:Drivers/STM32L4xx_HAL_Driver/Src/stm32l4xx_hal_uart.c **** 
1254:Drivers/STM32L4xx_HAL_Driver/Src/stm32l4xx_hal_uart.c ****       HAL_DMA_Abort(huart->hdmarx);
 2490              		.loc 1 1254 0
 2491 0056 7B68     		ldr	r3, [r7, #4]
 2492 0058 5B6E     		ldr	r3, [r3, #100]
 2493 005a 1846     		mov	r0, r3
 2494 005c FFF7FEFF 		bl	HAL_DMA_Abort
 2495              	.L122:
1255:Drivers/STM32L4xx_HAL_Driver/Src/stm32l4xx_hal_uart.c ****     }
1256:Drivers/STM32L4xx_HAL_Driver/Src/stm32l4xx_hal_uart.c ****   }
1257:Drivers/STM32L4xx_HAL_Driver/Src/stm32l4xx_hal_uart.c **** 
1258:Drivers/STM32L4xx_HAL_Driver/Src/stm32l4xx_hal_uart.c ****   /* Reset Rx transfer counter */
1259:Drivers/STM32L4xx_HAL_Driver/Src/stm32l4xx_hal_uart.c ****   huart->RxXferCount = 0; 
 2496              		.loc 1 1259 0
 2497 0060 7B68     		ldr	r3, [r7, #4]
 2498 0062 0022     		movs	r2, #0
 2499 0064 A3F85A20 		strh	r2, [r3, #90]	@ movhi
1260:Drivers/STM32L4xx_HAL_Driver/Src/stm32l4xx_hal_uart.c **** 
1261:Drivers/STM32L4xx_HAL_Driver/Src/stm32l4xx_hal_uart.c ****   /* Clear the Error flags in the ICR register */
1262:Drivers/STM32L4xx_HAL_Driver/Src/stm32l4xx_hal_uart.c ****   __HAL_UART_CLEAR_FLAG(huart, UART_CLEAR_OREF | UART_CLEAR_NEF | UART_CLEAR_PEF | UART_CLEAR_FEF);
 2500              		.loc 1 1262 0
 2501 0068 7B68     		ldr	r3, [r7, #4]
 2502 006a 1B68     		ldr	r3, [r3]
 2503 006c 0F22     		movs	r2, #15
 2504 006e 1A62     		str	r2, [r3, #32]
1263:Drivers/STM32L4xx_HAL_Driver/Src/stm32l4xx_hal_uart.c **** 
1264:Drivers/STM32L4xx_HAL_Driver/Src/stm32l4xx_hal_uart.c ****   /* Restore huart->RxState to Ready */
1265:Drivers/STM32L4xx_HAL_Driver/Src/stm32l4xx_hal_uart.c ****   huart->RxState = HAL_UART_STATE_READY;
 2505              		.loc 1 1265 0
 2506 0070 7B68     		ldr	r3, [r7, #4]
 2507 0072 2022     		movs	r2, #32
 2508 0074 83F86A20 		strb	r2, [r3, #106]
1266:Drivers/STM32L4xx_HAL_Driver/Src/stm32l4xx_hal_uart.c **** 
1267:Drivers/STM32L4xx_HAL_Driver/Src/stm32l4xx_hal_uart.c ****   return HAL_OK;
 2509              		.loc 1 1267 0
 2510 0078 0023     		movs	r3, #0
1268:Drivers/STM32L4xx_HAL_Driver/Src/stm32l4xx_hal_uart.c **** }
 2511              		.loc 1 1268 0
 2512 007a 1846     		mov	r0, r3
 2513 007c 0837     		adds	r7, r7, #8
 2514              	.LCFI99:
 2515              		.cfi_def_cfa_offset 8
 2516 007e BD46     		mov	sp, r7
 2517              	.LCFI100:
 2518              		.cfi_def_cfa_register 13
 2519              		@ sp needed
 2520 0080 80BD     		pop	{r7, pc}
 2521              		.cfi_endproc
 2522              	.LFE144:
 2524              		.section	.text.HAL_UART_Abort_IT,"ax",%progbits
 2525              		.align	1
 2526              		.global	HAL_UART_Abort_IT
ARM GAS  /tmp/ccMdFX4h.s 			page 67


 2527              		.syntax unified
 2528              		.thumb
 2529              		.thumb_func
 2530              		.fpu fpv4-sp-d16
 2532              	HAL_UART_Abort_IT:
 2533              	.LFB145:
1269:Drivers/STM32L4xx_HAL_Driver/Src/stm32l4xx_hal_uart.c **** 
1270:Drivers/STM32L4xx_HAL_Driver/Src/stm32l4xx_hal_uart.c **** /**
1271:Drivers/STM32L4xx_HAL_Driver/Src/stm32l4xx_hal_uart.c ****   * @brief  Abort ongoing transfers (Interrupt mode).
1272:Drivers/STM32L4xx_HAL_Driver/Src/stm32l4xx_hal_uart.c ****   * @param  huart UART handle.
1273:Drivers/STM32L4xx_HAL_Driver/Src/stm32l4xx_hal_uart.c ****   * @note   This procedure could be used for aborting any ongoing transfer started in Interrupt or 
1274:Drivers/STM32L4xx_HAL_Driver/Src/stm32l4xx_hal_uart.c ****   *         This procedure performs following operations :
1275:Drivers/STM32L4xx_HAL_Driver/Src/stm32l4xx_hal_uart.c ****   *           - Disable UART Interrupts (Tx and Rx)
1276:Drivers/STM32L4xx_HAL_Driver/Src/stm32l4xx_hal_uart.c ****   *           - Disable the DMA transfer in the peripheral register (if enabled)
1277:Drivers/STM32L4xx_HAL_Driver/Src/stm32l4xx_hal_uart.c ****   *           - Abort DMA transfer by calling HAL_DMA_Abort_IT (in case of transfer in DMA mode)
1278:Drivers/STM32L4xx_HAL_Driver/Src/stm32l4xx_hal_uart.c ****   *           - Set handle State to READY
1279:Drivers/STM32L4xx_HAL_Driver/Src/stm32l4xx_hal_uart.c ****   *           - At abort completion, call user abort complete callback
1280:Drivers/STM32L4xx_HAL_Driver/Src/stm32l4xx_hal_uart.c ****   * @note   This procedure is executed in Interrupt mode, meaning that abort procedure could be
1281:Drivers/STM32L4xx_HAL_Driver/Src/stm32l4xx_hal_uart.c ****   *         considered as completed only when user abort complete callback is executed (not when ex
1282:Drivers/STM32L4xx_HAL_Driver/Src/stm32l4xx_hal_uart.c ****   * @retval HAL status
1283:Drivers/STM32L4xx_HAL_Driver/Src/stm32l4xx_hal_uart.c **** */
1284:Drivers/STM32L4xx_HAL_Driver/Src/stm32l4xx_hal_uart.c **** HAL_StatusTypeDef HAL_UART_Abort_IT(UART_HandleTypeDef *huart)
1285:Drivers/STM32L4xx_HAL_Driver/Src/stm32l4xx_hal_uart.c **** {
 2534              		.loc 1 1285 0
 2535              		.cfi_startproc
 2536              		@ args = 0, pretend = 0, frame = 16
 2537              		@ frame_needed = 1, uses_anonymous_args = 0
 2538 0000 80B5     		push	{r7, lr}
 2539              	.LCFI101:
 2540              		.cfi_def_cfa_offset 8
 2541              		.cfi_offset 7, -8
 2542              		.cfi_offset 14, -4
 2543 0002 84B0     		sub	sp, sp, #16
 2544              	.LCFI102:
 2545              		.cfi_def_cfa_offset 24
 2546 0004 00AF     		add	r7, sp, #0
 2547              	.LCFI103:
 2548              		.cfi_def_cfa_register 7
 2549 0006 7860     		str	r0, [r7, #4]
1286:Drivers/STM32L4xx_HAL_Driver/Src/stm32l4xx_hal_uart.c ****   uint32_t abortcplt = 1;
 2550              		.loc 1 1286 0
 2551 0008 0123     		movs	r3, #1
 2552 000a FB60     		str	r3, [r7, #12]
1287:Drivers/STM32L4xx_HAL_Driver/Src/stm32l4xx_hal_uart.c ****   
1288:Drivers/STM32L4xx_HAL_Driver/Src/stm32l4xx_hal_uart.c ****   /* Disable TXEIE, TCIE, RXNE, PE and ERR (Frame error, noise error, overrun error) interrupts */
1289:Drivers/STM32L4xx_HAL_Driver/Src/stm32l4xx_hal_uart.c ****   CLEAR_BIT(huart->Instance->CR1, (USART_CR1_RXNEIE | USART_CR1_PEIE | USART_CR1_TXEIE | USART_CR1_
 2553              		.loc 1 1289 0
 2554 000c 7B68     		ldr	r3, [r7, #4]
 2555 000e 1B68     		ldr	r3, [r3]
 2556 0010 7A68     		ldr	r2, [r7, #4]
 2557 0012 1268     		ldr	r2, [r2]
 2558 0014 1268     		ldr	r2, [r2]
 2559 0016 22F4F072 		bic	r2, r2, #480
 2560 001a 1A60     		str	r2, [r3]
1290:Drivers/STM32L4xx_HAL_Driver/Src/stm32l4xx_hal_uart.c ****   CLEAR_BIT(huart->Instance->CR3, USART_CR3_EIE);
 2561              		.loc 1 1290 0
 2562 001c 7B68     		ldr	r3, [r7, #4]
ARM GAS  /tmp/ccMdFX4h.s 			page 68


 2563 001e 1B68     		ldr	r3, [r3]
 2564 0020 7A68     		ldr	r2, [r7, #4]
 2565 0022 1268     		ldr	r2, [r2]
 2566 0024 9268     		ldr	r2, [r2, #8]
 2567 0026 22F00102 		bic	r2, r2, #1
 2568 002a 9A60     		str	r2, [r3, #8]
1291:Drivers/STM32L4xx_HAL_Driver/Src/stm32l4xx_hal_uart.c **** 
1292:Drivers/STM32L4xx_HAL_Driver/Src/stm32l4xx_hal_uart.c ****   /* If DMA Tx and/or DMA Rx Handles are associated to UART Handle, DMA Abort complete callbacks sh
1293:Drivers/STM32L4xx_HAL_Driver/Src/stm32l4xx_hal_uart.c ****      before any call to DMA Abort functions */
1294:Drivers/STM32L4xx_HAL_Driver/Src/stm32l4xx_hal_uart.c ****   /* DMA Tx Handle is valid */
1295:Drivers/STM32L4xx_HAL_Driver/Src/stm32l4xx_hal_uart.c ****   if(huart->hdmatx != NULL)
 2569              		.loc 1 1295 0
 2570 002c 7B68     		ldr	r3, [r7, #4]
 2571 002e 1B6E     		ldr	r3, [r3, #96]
 2572 0030 002B     		cmp	r3, #0
 2573 0032 0FD0     		beq	.L125
1296:Drivers/STM32L4xx_HAL_Driver/Src/stm32l4xx_hal_uart.c ****   {
1297:Drivers/STM32L4xx_HAL_Driver/Src/stm32l4xx_hal_uart.c ****     /* Set DMA Abort Complete callback if UART DMA Tx request if enabled.
1298:Drivers/STM32L4xx_HAL_Driver/Src/stm32l4xx_hal_uart.c ****        Otherwise, set it to NULL */
1299:Drivers/STM32L4xx_HAL_Driver/Src/stm32l4xx_hal_uart.c ****     if(HAL_IS_BIT_SET(huart->Instance->CR3, USART_CR3_DMAT))
 2574              		.loc 1 1299 0
 2575 0034 7B68     		ldr	r3, [r7, #4]
 2576 0036 1B68     		ldr	r3, [r3]
 2577 0038 9B68     		ldr	r3, [r3, #8]
 2578 003a 03F08003 		and	r3, r3, #128
 2579 003e 802B     		cmp	r3, #128
 2580 0040 04D1     		bne	.L126
1300:Drivers/STM32L4xx_HAL_Driver/Src/stm32l4xx_hal_uart.c ****     {
1301:Drivers/STM32L4xx_HAL_Driver/Src/stm32l4xx_hal_uart.c ****       huart->hdmatx->XferAbortCallback = UART_DMATxAbortCallback;
 2581              		.loc 1 1301 0
 2582 0042 7B68     		ldr	r3, [r7, #4]
 2583 0044 1B6E     		ldr	r3, [r3, #96]
 2584 0046 414A     		ldr	r2, .L135
 2585 0048 9A63     		str	r2, [r3, #56]
 2586 004a 03E0     		b	.L125
 2587              	.L126:
1302:Drivers/STM32L4xx_HAL_Driver/Src/stm32l4xx_hal_uart.c ****     }
1303:Drivers/STM32L4xx_HAL_Driver/Src/stm32l4xx_hal_uart.c ****     else
1304:Drivers/STM32L4xx_HAL_Driver/Src/stm32l4xx_hal_uart.c ****     {
1305:Drivers/STM32L4xx_HAL_Driver/Src/stm32l4xx_hal_uart.c ****       huart->hdmatx->XferAbortCallback = NULL;
 2588              		.loc 1 1305 0
 2589 004c 7B68     		ldr	r3, [r7, #4]
 2590 004e 1B6E     		ldr	r3, [r3, #96]
 2591 0050 0022     		movs	r2, #0
 2592 0052 9A63     		str	r2, [r3, #56]
 2593              	.L125:
1306:Drivers/STM32L4xx_HAL_Driver/Src/stm32l4xx_hal_uart.c ****     }
1307:Drivers/STM32L4xx_HAL_Driver/Src/stm32l4xx_hal_uart.c ****   }
1308:Drivers/STM32L4xx_HAL_Driver/Src/stm32l4xx_hal_uart.c ****   /* DMA Rx Handle is valid */
1309:Drivers/STM32L4xx_HAL_Driver/Src/stm32l4xx_hal_uart.c ****   if(huart->hdmarx != NULL)
 2594              		.loc 1 1309 0
 2595 0054 7B68     		ldr	r3, [r7, #4]
 2596 0056 5B6E     		ldr	r3, [r3, #100]
 2597 0058 002B     		cmp	r3, #0
 2598 005a 0FD0     		beq	.L127
1310:Drivers/STM32L4xx_HAL_Driver/Src/stm32l4xx_hal_uart.c ****   {
1311:Drivers/STM32L4xx_HAL_Driver/Src/stm32l4xx_hal_uart.c ****     /* Set DMA Abort Complete callback if UART DMA Rx request if enabled.
ARM GAS  /tmp/ccMdFX4h.s 			page 69


1312:Drivers/STM32L4xx_HAL_Driver/Src/stm32l4xx_hal_uart.c ****        Otherwise, set it to NULL */
1313:Drivers/STM32L4xx_HAL_Driver/Src/stm32l4xx_hal_uart.c ****     if(HAL_IS_BIT_SET(huart->Instance->CR3, USART_CR3_DMAR))
 2599              		.loc 1 1313 0
 2600 005c 7B68     		ldr	r3, [r7, #4]
 2601 005e 1B68     		ldr	r3, [r3]
 2602 0060 9B68     		ldr	r3, [r3, #8]
 2603 0062 03F04003 		and	r3, r3, #64
 2604 0066 402B     		cmp	r3, #64
 2605 0068 04D1     		bne	.L128
1314:Drivers/STM32L4xx_HAL_Driver/Src/stm32l4xx_hal_uart.c ****     {
1315:Drivers/STM32L4xx_HAL_Driver/Src/stm32l4xx_hal_uart.c ****       huart->hdmarx->XferAbortCallback = UART_DMARxAbortCallback;
 2606              		.loc 1 1315 0
 2607 006a 7B68     		ldr	r3, [r7, #4]
 2608 006c 5B6E     		ldr	r3, [r3, #100]
 2609 006e 384A     		ldr	r2, .L135+4
 2610 0070 9A63     		str	r2, [r3, #56]
 2611 0072 03E0     		b	.L127
 2612              	.L128:
1316:Drivers/STM32L4xx_HAL_Driver/Src/stm32l4xx_hal_uart.c ****     }
1317:Drivers/STM32L4xx_HAL_Driver/Src/stm32l4xx_hal_uart.c ****     else
1318:Drivers/STM32L4xx_HAL_Driver/Src/stm32l4xx_hal_uart.c ****     {
1319:Drivers/STM32L4xx_HAL_Driver/Src/stm32l4xx_hal_uart.c ****       huart->hdmarx->XferAbortCallback = NULL;
 2613              		.loc 1 1319 0
 2614 0074 7B68     		ldr	r3, [r7, #4]
 2615 0076 5B6E     		ldr	r3, [r3, #100]
 2616 0078 0022     		movs	r2, #0
 2617 007a 9A63     		str	r2, [r3, #56]
 2618              	.L127:
1320:Drivers/STM32L4xx_HAL_Driver/Src/stm32l4xx_hal_uart.c ****     }
1321:Drivers/STM32L4xx_HAL_Driver/Src/stm32l4xx_hal_uart.c ****   }
1322:Drivers/STM32L4xx_HAL_Driver/Src/stm32l4xx_hal_uart.c ****   
1323:Drivers/STM32L4xx_HAL_Driver/Src/stm32l4xx_hal_uart.c ****   /* Disable the UART DMA Tx request if enabled */
1324:Drivers/STM32L4xx_HAL_Driver/Src/stm32l4xx_hal_uart.c ****   if(HAL_IS_BIT_SET(huart->Instance->CR3, USART_CR3_DMAT))
 2619              		.loc 1 1324 0
 2620 007c 7B68     		ldr	r3, [r7, #4]
 2621 007e 1B68     		ldr	r3, [r3]
 2622 0080 9B68     		ldr	r3, [r3, #8]
 2623 0082 03F08003 		and	r3, r3, #128
 2624 0086 802B     		cmp	r3, #128
 2625 0088 1AD1     		bne	.L129
1325:Drivers/STM32L4xx_HAL_Driver/Src/stm32l4xx_hal_uart.c ****   {
1326:Drivers/STM32L4xx_HAL_Driver/Src/stm32l4xx_hal_uart.c ****     /* Disable DMA Tx at UART level */
1327:Drivers/STM32L4xx_HAL_Driver/Src/stm32l4xx_hal_uart.c ****     CLEAR_BIT(huart->Instance->CR3, USART_CR3_DMAT);
 2626              		.loc 1 1327 0
 2627 008a 7B68     		ldr	r3, [r7, #4]
 2628 008c 1B68     		ldr	r3, [r3]
 2629 008e 7A68     		ldr	r2, [r7, #4]
 2630 0090 1268     		ldr	r2, [r2]
 2631 0092 9268     		ldr	r2, [r2, #8]
 2632 0094 22F08002 		bic	r2, r2, #128
 2633 0098 9A60     		str	r2, [r3, #8]
1328:Drivers/STM32L4xx_HAL_Driver/Src/stm32l4xx_hal_uart.c **** 
1329:Drivers/STM32L4xx_HAL_Driver/Src/stm32l4xx_hal_uart.c ****     /* Abort the UART DMA Tx channel : use non blocking DMA Abort API (callback) */
1330:Drivers/STM32L4xx_HAL_Driver/Src/stm32l4xx_hal_uart.c ****     if(huart->hdmatx != NULL)
 2634              		.loc 1 1330 0
 2635 009a 7B68     		ldr	r3, [r7, #4]
 2636 009c 1B6E     		ldr	r3, [r3, #96]
ARM GAS  /tmp/ccMdFX4h.s 			page 70


 2637 009e 002B     		cmp	r3, #0
 2638 00a0 0ED0     		beq	.L129
1331:Drivers/STM32L4xx_HAL_Driver/Src/stm32l4xx_hal_uart.c ****     {
1332:Drivers/STM32L4xx_HAL_Driver/Src/stm32l4xx_hal_uart.c ****       /* UART Tx DMA Abort callback has already been initialised : 
1333:Drivers/STM32L4xx_HAL_Driver/Src/stm32l4xx_hal_uart.c ****          will lead to call HAL_UART_AbortCpltCallback() at end of DMA abort procedure */
1334:Drivers/STM32L4xx_HAL_Driver/Src/stm32l4xx_hal_uart.c **** 
1335:Drivers/STM32L4xx_HAL_Driver/Src/stm32l4xx_hal_uart.c ****       /* Abort DMA TX */
1336:Drivers/STM32L4xx_HAL_Driver/Src/stm32l4xx_hal_uart.c ****       if(HAL_DMA_Abort_IT(huart->hdmatx) != HAL_OK)
 2639              		.loc 1 1336 0
 2640 00a2 7B68     		ldr	r3, [r7, #4]
 2641 00a4 1B6E     		ldr	r3, [r3, #96]
 2642 00a6 1846     		mov	r0, r3
 2643 00a8 FFF7FEFF 		bl	HAL_DMA_Abort_IT
 2644 00ac 0346     		mov	r3, r0
 2645 00ae 002B     		cmp	r3, #0
 2646 00b0 04D0     		beq	.L130
1337:Drivers/STM32L4xx_HAL_Driver/Src/stm32l4xx_hal_uart.c ****       {
1338:Drivers/STM32L4xx_HAL_Driver/Src/stm32l4xx_hal_uart.c ****         huart->hdmatx->XferAbortCallback = NULL;
 2647              		.loc 1 1338 0
 2648 00b2 7B68     		ldr	r3, [r7, #4]
 2649 00b4 1B6E     		ldr	r3, [r3, #96]
 2650 00b6 0022     		movs	r2, #0
 2651 00b8 9A63     		str	r2, [r3, #56]
 2652 00ba 01E0     		b	.L129
 2653              	.L130:
1339:Drivers/STM32L4xx_HAL_Driver/Src/stm32l4xx_hal_uart.c ****       }
1340:Drivers/STM32L4xx_HAL_Driver/Src/stm32l4xx_hal_uart.c ****       else
1341:Drivers/STM32L4xx_HAL_Driver/Src/stm32l4xx_hal_uart.c ****       {
1342:Drivers/STM32L4xx_HAL_Driver/Src/stm32l4xx_hal_uart.c ****         abortcplt = 0;
 2654              		.loc 1 1342 0
 2655 00bc 0023     		movs	r3, #0
 2656 00be FB60     		str	r3, [r7, #12]
 2657              	.L129:
1343:Drivers/STM32L4xx_HAL_Driver/Src/stm32l4xx_hal_uart.c ****       }
1344:Drivers/STM32L4xx_HAL_Driver/Src/stm32l4xx_hal_uart.c ****     }
1345:Drivers/STM32L4xx_HAL_Driver/Src/stm32l4xx_hal_uart.c ****   }
1346:Drivers/STM32L4xx_HAL_Driver/Src/stm32l4xx_hal_uart.c **** 
1347:Drivers/STM32L4xx_HAL_Driver/Src/stm32l4xx_hal_uart.c ****   /* Disable the UART DMA Rx request if enabled */
1348:Drivers/STM32L4xx_HAL_Driver/Src/stm32l4xx_hal_uart.c ****   if (HAL_IS_BIT_SET(huart->Instance->CR3, USART_CR3_DMAR))
 2658              		.loc 1 1348 0
 2659 00c0 7B68     		ldr	r3, [r7, #4]
 2660 00c2 1B68     		ldr	r3, [r3]
 2661 00c4 9B68     		ldr	r3, [r3, #8]
 2662 00c6 03F04003 		and	r3, r3, #64
 2663 00ca 402B     		cmp	r3, #64
 2664 00cc 1CD1     		bne	.L131
1349:Drivers/STM32L4xx_HAL_Driver/Src/stm32l4xx_hal_uart.c ****   {
1350:Drivers/STM32L4xx_HAL_Driver/Src/stm32l4xx_hal_uart.c ****     CLEAR_BIT(huart->Instance->CR3, USART_CR3_DMAR);
 2665              		.loc 1 1350 0
 2666 00ce 7B68     		ldr	r3, [r7, #4]
 2667 00d0 1B68     		ldr	r3, [r3]
 2668 00d2 7A68     		ldr	r2, [r7, #4]
 2669 00d4 1268     		ldr	r2, [r2]
 2670 00d6 9268     		ldr	r2, [r2, #8]
 2671 00d8 22F04002 		bic	r2, r2, #64
 2672 00dc 9A60     		str	r2, [r3, #8]
1351:Drivers/STM32L4xx_HAL_Driver/Src/stm32l4xx_hal_uart.c **** 
ARM GAS  /tmp/ccMdFX4h.s 			page 71


1352:Drivers/STM32L4xx_HAL_Driver/Src/stm32l4xx_hal_uart.c ****     /* Abort the UART DMA Rx channel : use non blocking DMA Abort API (callback) */
1353:Drivers/STM32L4xx_HAL_Driver/Src/stm32l4xx_hal_uart.c ****     if(huart->hdmarx != NULL)
 2673              		.loc 1 1353 0
 2674 00de 7B68     		ldr	r3, [r7, #4]
 2675 00e0 5B6E     		ldr	r3, [r3, #100]
 2676 00e2 002B     		cmp	r3, #0
 2677 00e4 10D0     		beq	.L131
1354:Drivers/STM32L4xx_HAL_Driver/Src/stm32l4xx_hal_uart.c ****     {
1355:Drivers/STM32L4xx_HAL_Driver/Src/stm32l4xx_hal_uart.c ****       /* UART Rx DMA Abort callback has already been initialised : 
1356:Drivers/STM32L4xx_HAL_Driver/Src/stm32l4xx_hal_uart.c ****          will lead to call HAL_UART_AbortCpltCallback() at end of DMA abort procedure */
1357:Drivers/STM32L4xx_HAL_Driver/Src/stm32l4xx_hal_uart.c **** 
1358:Drivers/STM32L4xx_HAL_Driver/Src/stm32l4xx_hal_uart.c ****       /* Abort DMA RX */
1359:Drivers/STM32L4xx_HAL_Driver/Src/stm32l4xx_hal_uart.c ****       if(HAL_DMA_Abort_IT(huart->hdmarx) != HAL_OK)
 2678              		.loc 1 1359 0
 2679 00e6 7B68     		ldr	r3, [r7, #4]
 2680 00e8 5B6E     		ldr	r3, [r3, #100]
 2681 00ea 1846     		mov	r0, r3
 2682 00ec FFF7FEFF 		bl	HAL_DMA_Abort_IT
 2683 00f0 0346     		mov	r3, r0
 2684 00f2 002B     		cmp	r3, #0
 2685 00f4 06D0     		beq	.L132
1360:Drivers/STM32L4xx_HAL_Driver/Src/stm32l4xx_hal_uart.c ****       {
1361:Drivers/STM32L4xx_HAL_Driver/Src/stm32l4xx_hal_uart.c ****         huart->hdmarx->XferAbortCallback = NULL;
 2686              		.loc 1 1361 0
 2687 00f6 7B68     		ldr	r3, [r7, #4]
 2688 00f8 5B6E     		ldr	r3, [r3, #100]
 2689 00fa 0022     		movs	r2, #0
 2690 00fc 9A63     		str	r2, [r3, #56]
1362:Drivers/STM32L4xx_HAL_Driver/Src/stm32l4xx_hal_uart.c ****         abortcplt = 1;
 2691              		.loc 1 1362 0
 2692 00fe 0123     		movs	r3, #1
 2693 0100 FB60     		str	r3, [r7, #12]
 2694 0102 01E0     		b	.L131
 2695              	.L132:
1363:Drivers/STM32L4xx_HAL_Driver/Src/stm32l4xx_hal_uart.c ****       }
1364:Drivers/STM32L4xx_HAL_Driver/Src/stm32l4xx_hal_uart.c ****       else
1365:Drivers/STM32L4xx_HAL_Driver/Src/stm32l4xx_hal_uart.c ****       {
1366:Drivers/STM32L4xx_HAL_Driver/Src/stm32l4xx_hal_uart.c ****         abortcplt = 0;
 2696              		.loc 1 1366 0
 2697 0104 0023     		movs	r3, #0
 2698 0106 FB60     		str	r3, [r7, #12]
 2699              	.L131:
1367:Drivers/STM32L4xx_HAL_Driver/Src/stm32l4xx_hal_uart.c ****       }
1368:Drivers/STM32L4xx_HAL_Driver/Src/stm32l4xx_hal_uart.c ****     }
1369:Drivers/STM32L4xx_HAL_Driver/Src/stm32l4xx_hal_uart.c ****   }
1370:Drivers/STM32L4xx_HAL_Driver/Src/stm32l4xx_hal_uart.c **** 
1371:Drivers/STM32L4xx_HAL_Driver/Src/stm32l4xx_hal_uart.c ****   /* if no DMA abort complete callback execution is required => call user Abort Complete callback *
1372:Drivers/STM32L4xx_HAL_Driver/Src/stm32l4xx_hal_uart.c ****   if (abortcplt == 1)
 2700              		.loc 1 1372 0
 2701 0108 FB68     		ldr	r3, [r7, #12]
 2702 010a 012B     		cmp	r3, #1
 2703 010c 19D1     		bne	.L133
1373:Drivers/STM32L4xx_HAL_Driver/Src/stm32l4xx_hal_uart.c ****   {
1374:Drivers/STM32L4xx_HAL_Driver/Src/stm32l4xx_hal_uart.c ****     /* Reset Tx and Rx transfer counters */
1375:Drivers/STM32L4xx_HAL_Driver/Src/stm32l4xx_hal_uart.c ****     huart->TxXferCount = 0; 
 2704              		.loc 1 1375 0
 2705 010e 7B68     		ldr	r3, [r7, #4]
ARM GAS  /tmp/ccMdFX4h.s 			page 72


 2706 0110 0022     		movs	r2, #0
 2707 0112 A3F85220 		strh	r2, [r3, #82]	@ movhi
1376:Drivers/STM32L4xx_HAL_Driver/Src/stm32l4xx_hal_uart.c ****     huart->RxXferCount = 0;
 2708              		.loc 1 1376 0
 2709 0116 7B68     		ldr	r3, [r7, #4]
 2710 0118 0022     		movs	r2, #0
 2711 011a A3F85A20 		strh	r2, [r3, #90]	@ movhi
1377:Drivers/STM32L4xx_HAL_Driver/Src/stm32l4xx_hal_uart.c **** 
1378:Drivers/STM32L4xx_HAL_Driver/Src/stm32l4xx_hal_uart.c ****     /* Reset errorCode */
1379:Drivers/STM32L4xx_HAL_Driver/Src/stm32l4xx_hal_uart.c ****     huart->ErrorCode = HAL_UART_ERROR_NONE;
 2712              		.loc 1 1379 0
 2713 011e 7B68     		ldr	r3, [r7, #4]
 2714 0120 0022     		movs	r2, #0
 2715 0122 DA66     		str	r2, [r3, #108]
1380:Drivers/STM32L4xx_HAL_Driver/Src/stm32l4xx_hal_uart.c **** 
1381:Drivers/STM32L4xx_HAL_Driver/Src/stm32l4xx_hal_uart.c ****     /* Clear the Error flags in the ICR register */
1382:Drivers/STM32L4xx_HAL_Driver/Src/stm32l4xx_hal_uart.c ****     __HAL_UART_CLEAR_FLAG(huart, UART_CLEAR_OREF | UART_CLEAR_NEF | UART_CLEAR_PEF | UART_CLEAR_FEF
 2716              		.loc 1 1382 0
 2717 0124 7B68     		ldr	r3, [r7, #4]
 2718 0126 1B68     		ldr	r3, [r3]
 2719 0128 0F22     		movs	r2, #15
 2720 012a 1A62     		str	r2, [r3, #32]
1383:Drivers/STM32L4xx_HAL_Driver/Src/stm32l4xx_hal_uart.c **** 
1384:Drivers/STM32L4xx_HAL_Driver/Src/stm32l4xx_hal_uart.c ****     /* Restore huart->gState and huart->RxState to Ready */
1385:Drivers/STM32L4xx_HAL_Driver/Src/stm32l4xx_hal_uart.c ****     huart->gState  = HAL_UART_STATE_READY;
 2721              		.loc 1 1385 0
 2722 012c 7B68     		ldr	r3, [r7, #4]
 2723 012e 2022     		movs	r2, #32
 2724 0130 83F86920 		strb	r2, [r3, #105]
1386:Drivers/STM32L4xx_HAL_Driver/Src/stm32l4xx_hal_uart.c ****     huart->RxState = HAL_UART_STATE_READY;
 2725              		.loc 1 1386 0
 2726 0134 7B68     		ldr	r3, [r7, #4]
 2727 0136 2022     		movs	r2, #32
 2728 0138 83F86A20 		strb	r2, [r3, #106]
1387:Drivers/STM32L4xx_HAL_Driver/Src/stm32l4xx_hal_uart.c **** 
1388:Drivers/STM32L4xx_HAL_Driver/Src/stm32l4xx_hal_uart.c ****     /* As no DMA to be aborted, call directly user Abort complete callback */
1389:Drivers/STM32L4xx_HAL_Driver/Src/stm32l4xx_hal_uart.c ****     HAL_UART_AbortCpltCallback(huart);
 2729              		.loc 1 1389 0
 2730 013c 7868     		ldr	r0, [r7, #4]
 2731 013e FFF7FEFF 		bl	HAL_UART_AbortCpltCallback
 2732              	.L133:
1390:Drivers/STM32L4xx_HAL_Driver/Src/stm32l4xx_hal_uart.c ****   }
1391:Drivers/STM32L4xx_HAL_Driver/Src/stm32l4xx_hal_uart.c **** 
1392:Drivers/STM32L4xx_HAL_Driver/Src/stm32l4xx_hal_uart.c ****   return HAL_OK;
 2733              		.loc 1 1392 0
 2734 0142 0023     		movs	r3, #0
1393:Drivers/STM32L4xx_HAL_Driver/Src/stm32l4xx_hal_uart.c **** }
 2735              		.loc 1 1393 0
 2736 0144 1846     		mov	r0, r3
 2737 0146 1037     		adds	r7, r7, #16
 2738              	.LCFI104:
 2739              		.cfi_def_cfa_offset 8
 2740 0148 BD46     		mov	sp, r7
 2741              	.LCFI105:
 2742              		.cfi_def_cfa_register 13
 2743              		@ sp needed
 2744 014a 80BD     		pop	{r7, pc}
ARM GAS  /tmp/ccMdFX4h.s 			page 73


 2745              	.L136:
 2746              		.align	2
 2747              	.L135:
 2748 014c 00000000 		.word	UART_DMATxAbortCallback
 2749 0150 00000000 		.word	UART_DMARxAbortCallback
 2750              		.cfi_endproc
 2751              	.LFE145:
 2753              		.section	.text.HAL_UART_AbortTransmit_IT,"ax",%progbits
 2754              		.align	1
 2755              		.global	HAL_UART_AbortTransmit_IT
 2756              		.syntax unified
 2757              		.thumb
 2758              		.thumb_func
 2759              		.fpu fpv4-sp-d16
 2761              	HAL_UART_AbortTransmit_IT:
 2762              	.LFB146:
1394:Drivers/STM32L4xx_HAL_Driver/Src/stm32l4xx_hal_uart.c **** 
1395:Drivers/STM32L4xx_HAL_Driver/Src/stm32l4xx_hal_uart.c **** /**
1396:Drivers/STM32L4xx_HAL_Driver/Src/stm32l4xx_hal_uart.c ****   * @brief  Abort ongoing Transmit transfer (Interrupt mode).
1397:Drivers/STM32L4xx_HAL_Driver/Src/stm32l4xx_hal_uart.c ****   * @param  huart UART handle.
1398:Drivers/STM32L4xx_HAL_Driver/Src/stm32l4xx_hal_uart.c ****   * @note   This procedure could be used for aborting any ongoing Tx transfer started in Interrupt 
1399:Drivers/STM32L4xx_HAL_Driver/Src/stm32l4xx_hal_uart.c ****   *         This procedure performs following operations :
1400:Drivers/STM32L4xx_HAL_Driver/Src/stm32l4xx_hal_uart.c ****   *           - Disable UART Interrupts (Tx)
1401:Drivers/STM32L4xx_HAL_Driver/Src/stm32l4xx_hal_uart.c ****   *           - Disable the DMA transfer in the peripheral register (if enabled)
1402:Drivers/STM32L4xx_HAL_Driver/Src/stm32l4xx_hal_uart.c ****   *           - Abort DMA transfer by calling HAL_DMA_Abort_IT (in case of transfer in DMA mode)
1403:Drivers/STM32L4xx_HAL_Driver/Src/stm32l4xx_hal_uart.c ****   *           - Set handle State to READY
1404:Drivers/STM32L4xx_HAL_Driver/Src/stm32l4xx_hal_uart.c ****   *           - At abort completion, call user abort complete callback
1405:Drivers/STM32L4xx_HAL_Driver/Src/stm32l4xx_hal_uart.c ****   * @note   This procedure is executed in Interrupt mode, meaning that abort procedure could be
1406:Drivers/STM32L4xx_HAL_Driver/Src/stm32l4xx_hal_uart.c ****   *         considered as completed only when user abort complete callback is executed (not when ex
1407:Drivers/STM32L4xx_HAL_Driver/Src/stm32l4xx_hal_uart.c ****   * @retval HAL status
1408:Drivers/STM32L4xx_HAL_Driver/Src/stm32l4xx_hal_uart.c **** */
1409:Drivers/STM32L4xx_HAL_Driver/Src/stm32l4xx_hal_uart.c **** HAL_StatusTypeDef HAL_UART_AbortTransmit_IT(UART_HandleTypeDef *huart)
1410:Drivers/STM32L4xx_HAL_Driver/Src/stm32l4xx_hal_uart.c **** {
 2763              		.loc 1 1410 0
 2764              		.cfi_startproc
 2765              		@ args = 0, pretend = 0, frame = 8
 2766              		@ frame_needed = 1, uses_anonymous_args = 0
 2767 0000 80B5     		push	{r7, lr}
 2768              	.LCFI106:
 2769              		.cfi_def_cfa_offset 8
 2770              		.cfi_offset 7, -8
 2771              		.cfi_offset 14, -4
 2772 0002 82B0     		sub	sp, sp, #8
 2773              	.LCFI107:
 2774              		.cfi_def_cfa_offset 16
 2775 0004 00AF     		add	r7, sp, #0
 2776              	.LCFI108:
 2777              		.cfi_def_cfa_register 7
 2778 0006 7860     		str	r0, [r7, #4]
1411:Drivers/STM32L4xx_HAL_Driver/Src/stm32l4xx_hal_uart.c ****   /* Disable TXEIE and TCIE interrupts */
1412:Drivers/STM32L4xx_HAL_Driver/Src/stm32l4xx_hal_uart.c ****   CLEAR_BIT(huart->Instance->CR1, (USART_CR1_TXEIE | USART_CR1_TCIE));
 2779              		.loc 1 1412 0
 2780 0008 7B68     		ldr	r3, [r7, #4]
 2781 000a 1B68     		ldr	r3, [r3]
 2782 000c 7A68     		ldr	r2, [r7, #4]
 2783 000e 1268     		ldr	r2, [r2]
 2784 0010 1268     		ldr	r2, [r2]
ARM GAS  /tmp/ccMdFX4h.s 			page 74


 2785 0012 22F0C002 		bic	r2, r2, #192
 2786 0016 1A60     		str	r2, [r3]
1413:Drivers/STM32L4xx_HAL_Driver/Src/stm32l4xx_hal_uart.c **** 
1414:Drivers/STM32L4xx_HAL_Driver/Src/stm32l4xx_hal_uart.c ****   /* Disable the UART DMA Tx request if enabled */
1415:Drivers/STM32L4xx_HAL_Driver/Src/stm32l4xx_hal_uart.c ****   if (HAL_IS_BIT_SET(huart->Instance->CR3, USART_CR3_DMAT))
 2787              		.loc 1 1415 0
 2788 0018 7B68     		ldr	r3, [r7, #4]
 2789 001a 1B68     		ldr	r3, [r3]
 2790 001c 9B68     		ldr	r3, [r3, #8]
 2791 001e 03F08003 		and	r3, r3, #128
 2792 0022 802B     		cmp	r3, #128
 2793 0024 2BD1     		bne	.L138
1416:Drivers/STM32L4xx_HAL_Driver/Src/stm32l4xx_hal_uart.c ****   {
1417:Drivers/STM32L4xx_HAL_Driver/Src/stm32l4xx_hal_uart.c ****     CLEAR_BIT(huart->Instance->CR3, USART_CR3_DMAT);
 2794              		.loc 1 1417 0
 2795 0026 7B68     		ldr	r3, [r7, #4]
 2796 0028 1B68     		ldr	r3, [r3]
 2797 002a 7A68     		ldr	r2, [r7, #4]
 2798 002c 1268     		ldr	r2, [r2]
 2799 002e 9268     		ldr	r2, [r2, #8]
 2800 0030 22F08002 		bic	r2, r2, #128
 2801 0034 9A60     		str	r2, [r3, #8]
1418:Drivers/STM32L4xx_HAL_Driver/Src/stm32l4xx_hal_uart.c **** 
1419:Drivers/STM32L4xx_HAL_Driver/Src/stm32l4xx_hal_uart.c ****     /* Abort the UART DMA Tx channel : use non blocking DMA Abort API (callback) */
1420:Drivers/STM32L4xx_HAL_Driver/Src/stm32l4xx_hal_uart.c ****     if(huart->hdmatx != NULL)
 2802              		.loc 1 1420 0
 2803 0036 7B68     		ldr	r3, [r7, #4]
 2804 0038 1B6E     		ldr	r3, [r3, #96]
 2805 003a 002B     		cmp	r3, #0
 2806 003c 13D0     		beq	.L139
1421:Drivers/STM32L4xx_HAL_Driver/Src/stm32l4xx_hal_uart.c ****     {
1422:Drivers/STM32L4xx_HAL_Driver/Src/stm32l4xx_hal_uart.c ****       /* Set the UART DMA Abort callback : 
1423:Drivers/STM32L4xx_HAL_Driver/Src/stm32l4xx_hal_uart.c ****          will lead to call HAL_UART_AbortCpltCallback() at end of DMA abort procedure */
1424:Drivers/STM32L4xx_HAL_Driver/Src/stm32l4xx_hal_uart.c ****       huart->hdmatx->XferAbortCallback = UART_DMATxOnlyAbortCallback;
 2807              		.loc 1 1424 0
 2808 003e 7B68     		ldr	r3, [r7, #4]
 2809 0040 1B6E     		ldr	r3, [r3, #96]
 2810 0042 174A     		ldr	r2, .L144
 2811 0044 9A63     		str	r2, [r3, #56]
1425:Drivers/STM32L4xx_HAL_Driver/Src/stm32l4xx_hal_uart.c **** 
1426:Drivers/STM32L4xx_HAL_Driver/Src/stm32l4xx_hal_uart.c ****       /* Abort DMA TX */
1427:Drivers/STM32L4xx_HAL_Driver/Src/stm32l4xx_hal_uart.c ****       if(HAL_DMA_Abort_IT(huart->hdmatx) != HAL_OK)
 2812              		.loc 1 1427 0
 2813 0046 7B68     		ldr	r3, [r7, #4]
 2814 0048 1B6E     		ldr	r3, [r3, #96]
 2815 004a 1846     		mov	r0, r3
 2816 004c FFF7FEFF 		bl	HAL_DMA_Abort_IT
 2817 0050 0346     		mov	r3, r0
 2818 0052 002B     		cmp	r3, #0
 2819 0054 1ED0     		beq	.L142
1428:Drivers/STM32L4xx_HAL_Driver/Src/stm32l4xx_hal_uart.c ****       {
1429:Drivers/STM32L4xx_HAL_Driver/Src/stm32l4xx_hal_uart.c ****         /* Call Directly huart->hdmatx->XferAbortCallback function in case of error */
1430:Drivers/STM32L4xx_HAL_Driver/Src/stm32l4xx_hal_uart.c ****         huart->hdmatx->XferAbortCallback(huart->hdmatx);
 2820              		.loc 1 1430 0
 2821 0056 7B68     		ldr	r3, [r7, #4]
 2822 0058 1B6E     		ldr	r3, [r3, #96]
 2823 005a 9B6B     		ldr	r3, [r3, #56]
ARM GAS  /tmp/ccMdFX4h.s 			page 75


 2824 005c 7A68     		ldr	r2, [r7, #4]
 2825 005e 126E     		ldr	r2, [r2, #96]
 2826 0060 1046     		mov	r0, r2
 2827 0062 9847     		blx	r3
 2828              	.LVL0:
 2829 0064 16E0     		b	.L142
 2830              	.L139:
1431:Drivers/STM32L4xx_HAL_Driver/Src/stm32l4xx_hal_uart.c ****       }
1432:Drivers/STM32L4xx_HAL_Driver/Src/stm32l4xx_hal_uart.c ****     }
1433:Drivers/STM32L4xx_HAL_Driver/Src/stm32l4xx_hal_uart.c ****     else
1434:Drivers/STM32L4xx_HAL_Driver/Src/stm32l4xx_hal_uart.c ****     {
1435:Drivers/STM32L4xx_HAL_Driver/Src/stm32l4xx_hal_uart.c ****       /* Reset Tx transfer counter */
1436:Drivers/STM32L4xx_HAL_Driver/Src/stm32l4xx_hal_uart.c ****       huart->TxXferCount = 0; 
 2831              		.loc 1 1436 0
 2832 0066 7B68     		ldr	r3, [r7, #4]
 2833 0068 0022     		movs	r2, #0
 2834 006a A3F85220 		strh	r2, [r3, #82]	@ movhi
1437:Drivers/STM32L4xx_HAL_Driver/Src/stm32l4xx_hal_uart.c **** 
1438:Drivers/STM32L4xx_HAL_Driver/Src/stm32l4xx_hal_uart.c ****       /* Restore huart->gState to Ready */
1439:Drivers/STM32L4xx_HAL_Driver/Src/stm32l4xx_hal_uart.c ****       huart->gState = HAL_UART_STATE_READY;
 2835              		.loc 1 1439 0
 2836 006e 7B68     		ldr	r3, [r7, #4]
 2837 0070 2022     		movs	r2, #32
 2838 0072 83F86920 		strb	r2, [r3, #105]
1440:Drivers/STM32L4xx_HAL_Driver/Src/stm32l4xx_hal_uart.c **** 
1441:Drivers/STM32L4xx_HAL_Driver/Src/stm32l4xx_hal_uart.c ****       /* As no DMA to be aborted, call directly user Abort complete callback */
1442:Drivers/STM32L4xx_HAL_Driver/Src/stm32l4xx_hal_uart.c ****       HAL_UART_AbortTransmitCpltCallback(huart);
 2839              		.loc 1 1442 0
 2840 0076 7868     		ldr	r0, [r7, #4]
 2841 0078 FFF7FEFF 		bl	HAL_UART_AbortTransmitCpltCallback
 2842 007c 0AE0     		b	.L142
 2843              	.L138:
1443:Drivers/STM32L4xx_HAL_Driver/Src/stm32l4xx_hal_uart.c ****     }
1444:Drivers/STM32L4xx_HAL_Driver/Src/stm32l4xx_hal_uart.c ****   }
1445:Drivers/STM32L4xx_HAL_Driver/Src/stm32l4xx_hal_uart.c ****   else
1446:Drivers/STM32L4xx_HAL_Driver/Src/stm32l4xx_hal_uart.c ****   {
1447:Drivers/STM32L4xx_HAL_Driver/Src/stm32l4xx_hal_uart.c ****     /* Reset Tx transfer counter */
1448:Drivers/STM32L4xx_HAL_Driver/Src/stm32l4xx_hal_uart.c ****     huart->TxXferCount = 0; 
 2844              		.loc 1 1448 0
 2845 007e 7B68     		ldr	r3, [r7, #4]
 2846 0080 0022     		movs	r2, #0
 2847 0082 A3F85220 		strh	r2, [r3, #82]	@ movhi
1449:Drivers/STM32L4xx_HAL_Driver/Src/stm32l4xx_hal_uart.c **** 
